
StarFox.o:     file format elf32-v810


Disassembly of section .text:

07000000 <_start>:
 7000000:	60 bc 01 05 	movhi	1281, r0, sp
 7000004:	63 a0 c0 ff 	movea	-64, sp, sp
 7000008:	80 bc 01 05 	movhi	1281, r0, gp
 700000c:	84 a0 00 80 	movea	-32768, gp, gp
 7000010:	05 70       	ldsr	r0, psw
 7000012:	18 70       	ldsr	r0, chcw
 7000014:	c0 a0 00 20 	movea	8192, r0, r6

07000018 <DummyLoop>:
 7000018:	df 44       	add	-1, r6
 700001a:	fe 95       	bne	7000018 <DummyLoop>
 700001c:	c0 bc 01 07 	movhi	1793, r0, r6
 7000020:	c6 a0 70 14 	movea	5232, r6, r6
 7000024:	e0 bc 00 05 	movhi	1280, r0, r7
 7000028:	e7 a0 58 00 	movea	88, r7, r7
 700002c:	00 bd 00 05 	movhi	1280, r0, r8
 7000030:	08 a1 00 00 	movea	0, r8, r8
 7000034:	00 a8 10 00 	jr	7000044 <end_initdata>

07000038 <initdata>:
 7000038:	26 c1 00 00 	ld.b	0[r6],r9
 700003c:	28 d1 00 00 	st.b	r9, 0[r8]
 7000040:	c1 44       	add	1, r6
 7000042:	01 45       	add	1, r8

07000044 <end_initdata>:
 7000044:	07 0d       	cmp	r7, r8
 7000046:	f2 8d       	blt	7000038 <initdata>
 7000048:	c0 bc 01 05 	movhi	1281, r0, r6
 700004c:	00 a8 0a 00 	jr	7000056 <loop_start1>

07000050 <loop_top1>:
 7000050:	07 d4 00 00 	st.h	r0, 0[r7]
 7000054:	e2 44       	add	2, r7

07000056 <loop_start1>:
 7000056:	e6 0c       	cmp	r6, r7
 7000058:	f8 8d       	blt	7000050 <loop_top1>
 700005a:	e0 00       	mov	r0, r7
 700005c:	c0 bc 04 00 	movhi	4, r0, r6

07000060 <ClrLoop>:
 7000060:	07 dc 00 00 	st.w	r0, 0[r7]
 7000064:	e4 44       	add	4, r7
 7000066:	dc 44       	add	-4, r6
 7000068:	f8 95       	bne	7000060 <ClrLoop>
 700006a:	00 ac 3e 00 	jal	70000a8 <_setcoltable>
 700006e:	c0 bc 00 02 	movhi	512, r0, r6
 7000072:	e0 a0 14 00 	movea	20, r0, r7
 7000076:	e6 d0 00 00 	st.b	r7, 0[r6]
 700007a:	ff 40       	mov	-1, r7
 700007c:	e6 d0 04 00 	st.b	r7, 4[r6]
 7000080:	06 d0 20 00 	st.b	r0, 32[r6]
 7000084:	e0 a0 80 00 	movea	128, r0, r7
 7000088:	e6 d0 28 00 	st.b	r7, 40[r6]
 700008c:	e0 bf 00 07 	movhi	1792, r0, lp
 7000090:	ff a3 9e 00 	movea	158, lp, lp
 7000094:	20 bc 00 07 	movhi	1792, r0, r1
 7000098:	21 a0 dc 38 	movea	14556, r1, r1
 700009c:	01 18       	jmp	[r1]

0700009e <__end>:
 700009e:	e0 bf 00 00 	movhi	0, r0, lp
 70000a2:	ff a3 f0 ff 	movea	-16, lp, lp
 70000a6:	1f 18       	jmp	[lp]

070000a8 <_setcoltable>:
 70000a8:	c0 bc 04 00 	movhi	4, r0, r6
 70000ac:	c6 a0 00 dc 	movea	-9216, r6, r6
 70000b0:	e0 bc 00 07 	movhi	1792, r0, r7
 70000b4:	e7 a0 fe 00 	movea	254, r7, r7
 70000b8:	00 a1 00 01 	movea	256, r0, r8
 70000bc:	06 05       	add	r6, r8
 70000be:	00 a8 18 00 	jr	70000d6 <setcoltable_end>

070000c2 <setcoltable_loop>:
 70000c2:	27 c1 00 00 	ld.b	0[r7],r9
 70000c6:	29 b5 ff 00 	andi	255, r9, r9
 70000ca:	26 d5 00 00 	st.h	r9, 0[r6]
 70000ce:	26 d5 00 02 	st.h	r9, 512[r6]
 70000d2:	c2 44       	add	2, r6
 70000d4:	e1 44       	add	1, r7

070000d6 <setcoltable_end>:
 70000d6:	c8 0c       	cmp	r8, r6
 70000d8:	ea 8d       	blt	70000c2 <setcoltable_loop>
 70000da:	00 a1 00 01 	movea	256, r0, r8
 70000de:	06 05       	add	r6, r8
 70000e0:	00 a8 18 00 	jr	70000f8 <setcoltable_end2>

070000e4 <setcoltable_loop2>:
 70000e4:	ff 44       	add	-1, r7
 70000e6:	27 c1 00 00 	ld.b	0[r7],r9
 70000ea:	29 b5 ff 00 	andi	255, r9, r9
 70000ee:	26 d5 00 00 	st.h	r9, 0[r6]
 70000f2:	26 d5 00 02 	st.h	r9, 512[r6]
 70000f6:	c2 44       	add	2, r6

070000f8 <setcoltable_end2>:
 70000f8:	c8 0c       	cmp	r8, r6
 70000fa:	ea 8d       	blt	70000e4 <setcoltable_loop2>
 70000fc:	1f 18       	jmp	[lp]

070000fe <coltable>:
 70000fe:	fe fe fe fe 	out.w	r23, -258[r30]
 7000102:	fe fe fe fe 	out.w	r23, -258[r30]
 7000106:	fe fe fe fe 	out.w	r23, -258[r30]
 700010a:	fe fe fe fe 	out.w	r23, -258[r30]
 700010e:	fe fe fe fe 	out.w	r23, -258[r30]
 7000112:	fe fe fe fe 	out.w	r23, -258[r30]
 7000116:	fe fe fe fe 	out.w	r23, -258[r30]
 700011a:	fe fe fe fe 	out.w	r23, -258[r30]
 700011e:	fe fe fe fe 	out.w	r23, -258[r30]
 7000122:	fe fe fe fe 	out.w	r23, -258[r30]
 7000126:	fe fe fe fe 	out.w	r23, -258[r30]
 700012a:	fe fe fe fe 	out.w	r23, -258[r30]
 700012e:	fe fe fe fe 	out.w	r23, -258[r30]
 7000132:	fe fe fe fe 	out.w	r23, -258[r30]
 7000136:	fe fe fe fe 	out.w	r23, -258[r30]
 700013a:	fe fe e0 bc 	out.w	r23, -17184[r30]
 700013e:	a6 96       	bh	70001e4 <__inthnd+0x64>
 7000140:	8a 82       	bc	70001ca <__inthnd+0x4a>
 7000142:	7a 74       	stsr	sr26, sp
 7000144:	6e 6a       	halt	
 7000146:	66 62       	trap	6
 7000148:	60 5c       	sar	0, sp
 700014a:	5a 58       	cli	
 700014c:	56 54       	shr	22, r2
 700014e:	52 50       	shl	18, r2
 7000150:	50 4e       	cmp	-16, r18
 7000152:	4c 4c       	cmp	12, r2
 7000154:	4a 4a       	setf	nz, r18
 7000156:	48 48       	setf	nv, r2
 7000158:	46 46       	add	6, r18
 700015a:	46 44       	add	6, r2
 700015c:	44 44       	add	4, r2
 700015e:	42 42       	mov	2, r18
 7000160:	42 40       	mov	2, r2
 7000162:	40 40       	mov	0, r2
 7000164:	40 40       	mov	0, r2
 7000166:	3e 3e       	not	r30, r17
 7000168:	3e 3e       	not	r30, r17
 700016a:	3e 3e       	not	r30, r17
 700016c:	3e 3c       	not	r30, r1
 700016e:	3c 3c       	not	r28, r1
 7000170:	3c 3c       	not	r28, r1
 7000172:	3c 3c       	not	r28, r1
 7000174:	3c 3c       	not	r28, r1
 7000176:	3c 3c       	not	r28, r1
 7000178:	3c 3c       	not	r28, r1
 700017a:	3c 3c       	not	r28, r1
 700017c:	3c 3c       	not	r28, r1

0700017e <jmp_r1>:
 700017e:	01 18       	jmp	[r1]

07000180 <__inthnd>:
 7000180:	63 a4 90 ff 	addi	-112, sp, sp
 7000184:	e3 df 00 00 	st.w	lp, 0[sp]
 7000188:	c3 df 04 00 	st.w	r30, 4[sp]
 700018c:	a3 df 08 00 	st.w	r29, 8[sp]
 7000190:	83 df 0c 00 	st.w	r28, 12[sp]
 7000194:	63 df 10 00 	st.w	r27, 16[sp]
 7000198:	43 df 14 00 	st.w	r26, 20[sp]
 700019c:	23 df 18 00 	st.w	r25, 24[sp]
 70001a0:	03 df 1c 00 	st.w	r24, 28[sp]
 70001a4:	e3 de 20 00 	st.w	r23, 32[sp]
 70001a8:	c3 de 24 00 	st.w	r22, 36[sp]
 70001ac:	a3 de 28 00 	st.w	r21, 40[sp]
 70001b0:	83 de 2c 00 	st.w	r20, 44[sp]
 70001b4:	63 de 30 00 	st.w	r19, 48[sp]
 70001b8:	43 de 34 00 	st.w	r18, 52[sp]
 70001bc:	23 de 38 00 	st.w	r17, 56[sp]
 70001c0:	03 de 3c 00 	st.w	r16, 60[sp]
 70001c4:	e3 dd 40 00 	st.w	r15, 64[sp]
 70001c8:	c3 dd 44 00 	st.w	r14, 68[sp]
 70001cc:	a3 dd 48 00 	st.w	r13, 72[sp]
 70001d0:	83 dd 4c 00 	st.w	r12, 76[sp]
 70001d4:	63 dd 50 00 	st.w	r11, 80[sp]
 70001d8:	43 dd 54 00 	st.w	r10, 84[sp]
 70001dc:	23 dd 58 00 	st.w	r9, 88[sp]
 70001e0:	03 dd 5c 00 	st.w	r8, 92[sp]
 70001e4:	e3 dc 60 00 	st.w	r7, 96[sp]
 70001e8:	c3 dc 64 00 	st.w	r6, 100[sp]
 70001ec:	a3 dc 68 00 	st.w	r5, 104[sp]
 70001f0:	43 dc 6c 00 	st.w	r2, 108[sp]
 70001f4:	20 bc 01 05 	movhi	1281, r0, r1
 70001f8:	21 a0 c0 ff 	movea	-64, r1, r1
 70001fc:	c5 74       	stsr	psw, r6
 70001fe:	ce 54       	shr	14, r6
 7000200:	c6 b4 3c 00 	andi	60, r6, r6
 7000204:	26 04       	add	r6, r1
 7000206:	21 cc fc ff 	ld.w	-4[r1],r1
 700020a:	20 0c       	cmp	r0, r1
 700020c:	06 84       	be	7000212 <__inthnd_end>
 700020e:	ff af 70 ff 	jal	700017e <jmp_r1>

07000212 <__inthnd_end>:
 7000212:	e3 cf 00 00 	ld.w	0[sp],lp
 7000216:	c3 cf 04 00 	ld.w	4[sp],r30
 700021a:	a3 cf 08 00 	ld.w	8[sp],r29
 700021e:	83 cf 0c 00 	ld.w	12[sp],r28
 7000222:	63 cf 10 00 	ld.w	16[sp],r27
 7000226:	43 cf 14 00 	ld.w	20[sp],r26
 700022a:	23 cf 18 00 	ld.w	24[sp],r25
 700022e:	03 cf 1c 00 	ld.w	28[sp],r24
 7000232:	e3 ce 20 00 	ld.w	32[sp],r23
 7000236:	c3 ce 24 00 	ld.w	36[sp],r22
 700023a:	a3 ce 28 00 	ld.w	40[sp],r21
 700023e:	83 ce 2c 00 	ld.w	44[sp],r20
 7000242:	63 ce 30 00 	ld.w	48[sp],r19
 7000246:	43 ce 34 00 	ld.w	52[sp],r18
 700024a:	23 ce 38 00 	ld.w	56[sp],r17
 700024e:	03 ce 3c 00 	ld.w	60[sp],r16
 7000252:	e3 cd 40 00 	ld.w	64[sp],r15
 7000256:	c3 cd 44 00 	ld.w	68[sp],r14
 700025a:	a3 cd 48 00 	ld.w	72[sp],r13
 700025e:	83 cd 4c 00 	ld.w	76[sp],r12
 7000262:	63 cd 50 00 	ld.w	80[sp],r11
 7000266:	43 cd 54 00 	ld.w	84[sp],r10
 700026a:	23 cd 58 00 	ld.w	88[sp],r9
 700026e:	03 cd 5c 00 	ld.w	92[sp],r8
 7000272:	e3 cc 60 00 	ld.w	96[sp],r7
 7000276:	c3 cc 64 00 	ld.w	100[sp],r6
 700027a:	a3 cc 68 00 	ld.w	104[sp],r5
 700027e:	43 cc 6c 00 	ld.w	108[sp],r2
 7000282:	63 a4 70 00 	addi	112, sp, sp
 7000286:	23 cc 00 00 	ld.w	0[sp],r1
 700028a:	64 44       	add	4, sp
 700028c:	00 64       	reti	
 700028e:	ff ff 7c 44 	out.w	lp, 17532[lp]

07000290 <_vbWaitFrame>:
 7000290:	7c 44       	add	-4, sp
 7000292:	46 01       	mov	r6, r10
 7000294:	43 d5 04 00 	st.h	r10, 4[sp]
 7000298:	03 d4 02 00 	st.h	r0, 2[sp]
 700029c:	4c 8a       	br	70002e8 <_vbWaitFrame+0x58>
 700029e:	40 bd 00 05 	movhi	1280, r0, r10
 70002a2:	4a a1 00 00 	movea	0, r10, r10
 70002a6:	4a cd 00 00 	ld.w	0[r10],r10
 70002aa:	4a a5 40 00 	addi	64, r10, r10
 70002ae:	4a c5 00 00 	ld.h	0[r10],r10
 70002b2:	4a b5 ff ff 	andi	65535, r10, r10
 70002b6:	4a b5 0c 00 	andi	12, r10, r10
 70002ba:	40 0d       	cmp	r0, r10
 70002bc:	e2 85       	be	700029e <_vbWaitFrame+0xe>
 70002be:	40 bd 00 05 	movhi	1280, r0, r10
 70002c2:	4a a1 00 00 	movea	0, r10, r10
 70002c6:	4a cd 00 00 	ld.w	0[r10],r10
 70002ca:	4a a5 40 00 	addi	64, r10, r10
 70002ce:	4a c5 00 00 	ld.h	0[r10],r10
 70002d2:	4a b5 ff ff 	andi	65535, r10, r10
 70002d6:	4a b5 0c 00 	andi	12, r10, r10
 70002da:	40 0d       	cmp	r0, r10
 70002dc:	e2 95       	bne	70002be <_vbWaitFrame+0x2e>
 70002de:	43 c5 02 00 	ld.h	2[sp],r10
 70002e2:	41 45       	add	1, r10
 70002e4:	43 d5 02 00 	st.h	r10, 2[sp]
 70002e8:	43 c5 02 00 	ld.h	2[sp],r10
 70002ec:	6a b5 ff ff 	andi	65535, r10, r11
 70002f0:	43 c5 04 00 	ld.h	4[sp],r10
 70002f4:	4a b5 ff ff 	andi	65535, r10, r10
 70002f8:	6a 0d       	cmp	r10, r11
 70002fa:	a4 87       	bnh	700029e <_vbWaitFrame+0xe>
 70002fc:	64 44       	add	4, sp
 70002fe:	1f 18       	jmp	[lp]

07000300 <_vbDisplayOn>:
 7000300:	40 bd 00 05 	movhi	1280, r0, r10
 7000304:	4a a1 00 00 	movea	0, r10, r10
 7000308:	4a cd 00 00 	ld.w	0[r10],r10
 700030c:	4a a5 2a 00 	addi	42, r10, r10
 7000310:	0a d4 00 00 	st.h	r0, 0[r10]
 7000314:	40 bd 00 05 	movhi	1280, r0, r10
 7000318:	4a a1 00 00 	movea	0, r10, r10
 700031c:	4a cd 00 00 	ld.w	0[r10],r10
 7000320:	4a a5 42 00 	addi	66, r10, r10
 7000324:	60 bd 00 05 	movhi	1280, r0, r11
 7000328:	6b a1 00 00 	movea	0, r11, r11
 700032c:	6b cd 00 00 	ld.w	0[r11],r11
 7000330:	6b a5 40 00 	addi	64, r11, r11
 7000334:	6b c5 00 00 	ld.h	0[r11],r11
 7000338:	6b b5 ff ff 	andi	65535, r11, r11
 700033c:	6b b1 02 00 	ori	2, r11, r11
 7000340:	6b b5 ff ff 	andi	65535, r11, r11
 7000344:	6a d5 00 00 	st.h	r11, 0[r10]
 7000348:	40 bd 00 05 	movhi	1280, r0, r10
 700034c:	4a a1 00 00 	movea	0, r10, r10
 7000350:	4a cd 00 00 	ld.w	0[r10],r10
 7000354:	4a a5 22 00 	addi	34, r10, r10
 7000358:	60 bd 00 05 	movhi	1280, r0, r11
 700035c:	6b a1 00 00 	movea	0, r11, r11
 7000360:	6b cd 00 00 	ld.w	0[r11],r11
 7000364:	6b a5 20 00 	addi	32, r11, r11
 7000368:	6b c5 00 00 	ld.h	0[r11],r11
 700036c:	6b b5 ff ff 	andi	65535, r11, r11
 7000370:	6b b1 02 03 	ori	770, r11, r11
 7000374:	6b b5 ff ff 	andi	65535, r11, r11
 7000378:	6a d5 00 00 	st.h	r11, 0[r10]
 700037c:	40 bd 00 05 	movhi	1280, r0, r10
 7000380:	4a a1 00 00 	movea	0, r10, r10
 7000384:	4a cd 00 00 	ld.w	0[r10],r10
 7000388:	4a a5 2e 00 	addi	46, r10, r10
 700038c:	0a d4 00 00 	st.h	r0, 0[r10]
 7000390:	40 bd 00 05 	movhi	1280, r0, r10
 7000394:	4a a1 00 00 	movea	0, r10, r10
 7000398:	4a cd 00 00 	ld.w	0[r10],r10
 700039c:	44 45       	add	4, r10
 700039e:	60 bd 00 05 	movhi	1280, r0, r11
 70003a2:	6b a1 00 00 	movea	0, r11, r11
 70003a6:	6b cd 00 00 	ld.w	0[r11],r11
 70003aa:	6b c5 00 00 	ld.h	0[r11],r11
 70003ae:	6b b5 ff ff 	andi	65535, r11, r11
 70003b2:	6a d5 00 00 	st.h	r11, 0[r10]
 70003b6:	40 bd 00 05 	movhi	1280, r0, r10
 70003ba:	4a a1 00 00 	movea	0, r10, r10
 70003be:	4a cd 00 00 	ld.w	0[r10],r10
 70003c2:	4a a5 24 00 	addi	36, r10, r10
 70003c6:	0a d4 00 00 	st.h	r0, 0[r10]
 70003ca:	40 bd 00 05 	movhi	1280, r0, r10
 70003ce:	4a a1 00 00 	movea	0, r10, r10
 70003d2:	4a cd 00 00 	ld.w	0[r10],r10
 70003d6:	4a a5 26 00 	addi	38, r10, r10
 70003da:	0a d4 00 00 	st.h	r0, 0[r10]
 70003de:	40 bd 00 05 	movhi	1280, r0, r10
 70003e2:	4a a1 00 00 	movea	0, r10, r10
 70003e6:	4a cd 00 00 	ld.w	0[r10],r10
 70003ea:	4a a5 28 00 	addi	40, r10, r10
 70003ee:	0a d4 00 00 	st.h	r0, 0[r10]
 70003f2:	40 bd 00 05 	movhi	1280, r0, r10
 70003f6:	4a a1 00 00 	movea	0, r10, r10
 70003fa:	4a cd 00 00 	ld.w	0[r10],r10
 70003fe:	4a a5 60 00 	addi	96, r10, r10
 7000402:	60 a1 e4 00 	movea	228, r0, r11
 7000406:	6a d5 00 00 	st.h	r11, 0[r10]
 700040a:	40 bd 00 05 	movhi	1280, r0, r10
 700040e:	4a a1 00 00 	movea	0, r10, r10
 7000412:	4a cd 00 00 	ld.w	0[r10],r10
 7000416:	4a a5 62 00 	addi	98, r10, r10
 700041a:	60 a1 e4 00 	movea	228, r0, r11
 700041e:	6a d5 00 00 	st.h	r11, 0[r10]
 7000422:	40 bd 00 05 	movhi	1280, r0, r10
 7000426:	4a a1 00 00 	movea	0, r10, r10
 700042a:	4a cd 00 00 	ld.w	0[r10],r10
 700042e:	4a a5 64 00 	addi	100, r10, r10
 7000432:	60 a1 e4 00 	movea	228, r0, r11
 7000436:	6a d5 00 00 	st.h	r11, 0[r10]
 700043a:	40 bd 00 05 	movhi	1280, r0, r10
 700043e:	4a a1 00 00 	movea	0, r10, r10
 7000442:	4a cd 00 00 	ld.w	0[r10],r10
 7000446:	4a a5 66 00 	addi	102, r10, r10
 700044a:	60 a1 e4 00 	movea	228, r0, r11
 700044e:	6a d5 00 00 	st.h	r11, 0[r10]
 7000452:	40 bd 00 05 	movhi	1280, r0, r10
 7000456:	4a a1 00 00 	movea	0, r10, r10
 700045a:	4a cd 00 00 	ld.w	0[r10],r10
 700045e:	4a a5 68 00 	addi	104, r10, r10
 7000462:	60 a1 e4 00 	movea	228, r0, r11
 7000466:	6a d5 00 00 	st.h	r11, 0[r10]
 700046a:	40 bd 00 05 	movhi	1280, r0, r10
 700046e:	4a a1 00 00 	movea	0, r10, r10
 7000472:	4a cd 00 00 	ld.w	0[r10],r10
 7000476:	4a a5 6a 00 	addi	106, r10, r10
 700047a:	60 a1 e4 00 	movea	228, r0, r11
 700047e:	6a d5 00 00 	st.h	r11, 0[r10]
 7000482:	40 bd 00 05 	movhi	1280, r0, r10
 7000486:	4a a1 00 00 	movea	0, r10, r10
 700048a:	4a cd 00 00 	ld.w	0[r10],r10
 700048e:	4a a5 6c 00 	addi	108, r10, r10
 7000492:	60 a1 e4 00 	movea	228, r0, r11
 7000496:	6a d5 00 00 	st.h	r11, 0[r10]
 700049a:	40 bd 00 05 	movhi	1280, r0, r10
 700049e:	4a a1 00 00 	movea	0, r10, r10
 70004a2:	4a cd 00 00 	ld.w	0[r10],r10
 70004a6:	4a a5 6e 00 	addi	110, r10, r10
 70004aa:	60 a1 e4 00 	movea	228, r0, r11
 70004ae:	6a d5 00 00 	st.h	r11, 0[r10]
 70004b2:	40 bd 00 05 	movhi	1280, r0, r10
 70004b6:	4a a1 00 00 	movea	0, r10, r10
 70004ba:	4a cd 00 00 	ld.w	0[r10],r10
 70004be:	4a a5 70 00 	addi	112, r10, r10
 70004c2:	0a d4 00 00 	st.h	r0, 0[r10]
 70004c6:	1f 18       	jmp	[lp]

070004c8 <_vbDisplayOff>:
 70004c8:	40 bd 00 05 	movhi	1280, r0, r10
 70004cc:	4a a1 00 00 	movea	0, r10, r10
 70004d0:	4a cd 00 00 	ld.w	0[r10],r10
 70004d4:	4a a5 2a 00 	addi	42, r10, r10
 70004d8:	0a d4 00 00 	st.h	r0, 0[r10]
 70004dc:	40 bd 00 05 	movhi	1280, r0, r10
 70004e0:	4a a1 00 00 	movea	0, r10, r10
 70004e4:	4a cd 00 00 	ld.w	0[r10],r10
 70004e8:	4a a5 42 00 	addi	66, r10, r10
 70004ec:	0a d4 00 00 	st.h	r0, 0[r10]
 70004f0:	40 bd 00 05 	movhi	1280, r0, r10
 70004f4:	4a a1 00 00 	movea	0, r10, r10
 70004f8:	4a cd 00 00 	ld.w	0[r10],r10
 70004fc:	4a a5 22 00 	addi	34, r10, r10
 7000500:	0a d4 00 00 	st.h	r0, 0[r10]
 7000504:	40 bd 00 05 	movhi	1280, r0, r10
 7000508:	4a a1 00 00 	movea	0, r10, r10
 700050c:	4a cd 00 00 	ld.w	0[r10],r10
 7000510:	4a a5 2e 00 	addi	46, r10, r10
 7000514:	0a d4 00 00 	st.h	r0, 0[r10]
 7000518:	40 bd 00 05 	movhi	1280, r0, r10
 700051c:	4a a1 00 00 	movea	0, r10, r10
 7000520:	4a cd 00 00 	ld.w	0[r10],r10
 7000524:	44 45       	add	4, r10
 7000526:	60 bd 00 05 	movhi	1280, r0, r11
 700052a:	6b a1 00 00 	movea	0, r11, r11
 700052e:	6b cd 00 00 	ld.w	0[r11],r11
 7000532:	6b c5 00 00 	ld.h	0[r11],r11
 7000536:	6b b5 ff ff 	andi	65535, r11, r11
 700053a:	6a d5 00 00 	st.h	r11, 0[r10]
 700053e:	1f 18       	jmp	[lp]

07000540 <_vbDisplayShow>:
 7000540:	40 bd 00 05 	movhi	1280, r0, r10
 7000544:	4a a1 00 00 	movea	0, r10, r10
 7000548:	4a cd 00 00 	ld.w	0[r10],r10
 700054c:	4a a5 24 00 	addi	36, r10, r10
 7000550:	60 a1 20 00 	movea	32, r0, r11
 7000554:	6a d5 00 00 	st.h	r11, 0[r10]
 7000558:	40 bd 00 05 	movhi	1280, r0, r10
 700055c:	4a a1 00 00 	movea	0, r10, r10
 7000560:	4a cd 00 00 	ld.w	0[r10],r10
 7000564:	4a a5 26 00 	addi	38, r10, r10
 7000568:	60 a1 40 00 	movea	64, r0, r11
 700056c:	6a d5 00 00 	st.h	r11, 0[r10]
 7000570:	40 bd 00 05 	movhi	1280, r0, r10
 7000574:	4a a1 00 00 	movea	0, r10, r10
 7000578:	4a cd 00 00 	ld.w	0[r10],r10
 700057c:	4a a5 28 00 	addi	40, r10, r10
 7000580:	60 a1 20 00 	movea	32, r0, r11
 7000584:	6a d5 00 00 	st.h	r11, 0[r10]
 7000588:	1f 18       	jmp	[lp]
	...

0700058c <_vbDisplayHide>:
 700058c:	40 bd 00 05 	movhi	1280, r0, r10
 7000590:	4a a1 00 00 	movea	0, r10, r10
 7000594:	4a cd 00 00 	ld.w	0[r10],r10
 7000598:	4a a5 24 00 	addi	36, r10, r10
 700059c:	0a d4 00 00 	st.h	r0, 0[r10]
 70005a0:	40 bd 00 05 	movhi	1280, r0, r10
 70005a4:	4a a1 00 00 	movea	0, r10, r10
 70005a8:	4a cd 00 00 	ld.w	0[r10],r10
 70005ac:	4a a5 26 00 	addi	38, r10, r10
 70005b0:	0a d4 00 00 	st.h	r0, 0[r10]
 70005b4:	40 bd 00 05 	movhi	1280, r0, r10
 70005b8:	4a a1 00 00 	movea	0, r10, r10
 70005bc:	4a cd 00 00 	ld.w	0[r10],r10
 70005c0:	4a a5 28 00 	addi	40, r10, r10
 70005c4:	0a d4 00 00 	st.h	r0, 0[r10]
 70005c8:	1f 18       	jmp	[lp]
	...

070005cc <_vbFXFadeIn>:
 70005cc:	63 a4 e8 ff 	addi	-24, sp, sp
 70005d0:	e3 df 14 00 	st.w	lp, 20[sp]
 70005d4:	46 01       	mov	r6, r10
 70005d6:	43 d5 18 00 	st.h	r10, 24[sp]
 70005da:	03 d0 13 00 	st.b	r0, 19[sp]
 70005de:	80 8a       	br	700065e <_vbFXFadeIn+0x92>
 70005e0:	43 c5 18 00 	ld.h	24[sp],r10
 70005e4:	4a b5 ff ff 	andi	65535, r10, r10
 70005e8:	ca 00       	mov	r10, r6
 70005ea:	40 bd 00 07 	movhi	1792, r0, r10
 70005ee:	4a a1 90 02 	movea	656, r10, r10
 70005f2:	00 ac 04 00 	jal	70005f6 <_vbFXFadeIn+0x2a>
 70005f6:	e4 47       	add	4, lp
 70005f8:	0a 18       	jmp	[r10]
 70005fa:	40 bd 00 05 	movhi	1280, r0, r10
 70005fe:	4a a1 00 00 	movea	0, r10, r10
 7000602:	4a cd 00 00 	ld.w	0[r10],r10
 7000606:	4a a5 24 00 	addi	36, r10, r10
 700060a:	63 c1 13 00 	ld.b	19[sp],r11
 700060e:	6b b5 ff 00 	andi	255, r11, r11
 7000612:	6a d5 00 00 	st.h	r11, 0[r10]
 7000616:	40 bd 00 05 	movhi	1280, r0, r10
 700061a:	4a a1 00 00 	movea	0, r10, r10
 700061e:	4a cd 00 00 	ld.w	0[r10],r10
 7000622:	6a a5 26 00 	addi	38, r10, r11
 7000626:	43 c1 13 00 	ld.b	19[sp],r10
 700062a:	4a b5 ff 00 	andi	255, r10, r10
 700062e:	4a 05       	add	r10, r10
 7000630:	4a b5 ff ff 	andi	65535, r10, r10
 7000634:	4b d5 00 00 	st.h	r10, 0[r11]
 7000638:	40 bd 00 05 	movhi	1280, r0, r10
 700063c:	4a a1 00 00 	movea	0, r10, r10
 7000640:	4a cd 00 00 	ld.w	0[r10],r10
 7000644:	4a a5 28 00 	addi	40, r10, r10
 7000648:	63 c1 13 00 	ld.b	19[sp],r11
 700064c:	6b b5 ff 00 	andi	255, r11, r11
 7000650:	6a d5 00 00 	st.h	r11, 0[r10]
 7000654:	43 c1 13 00 	ld.b	19[sp],r10
 7000658:	41 45       	add	1, r10
 700065a:	43 d1 13 00 	st.b	r10, 19[sp]
 700065e:	43 c1 13 00 	ld.b	19[sp],r10
 7000662:	6a b5 ff 00 	andi	255, r10, r11
 7000666:	40 a1 20 00 	movea	32, r0, r10
 700066a:	6a 0d       	cmp	r10, r11
 700066c:	74 87       	bnh	70005e0 <_vbFXFadeIn+0x14>
 700066e:	e3 cf 14 00 	ld.w	20[sp],lp
 7000672:	63 a4 18 00 	addi	24, sp, sp
 7000676:	1f 18       	jmp	[lp]

07000678 <_vbFXFadeOut>:
 7000678:	63 a4 e8 ff 	addi	-24, sp, sp
 700067c:	e3 df 14 00 	st.w	lp, 20[sp]
 7000680:	46 01       	mov	r6, r10
 7000682:	43 d5 18 00 	st.h	r10, 24[sp]
 7000686:	40 a1 20 00 	movea	32, r0, r10
 700068a:	43 d1 13 00 	st.b	r10, 19[sp]
 700068e:	88 8a       	br	7000716 <_vbFXFadeOut+0x9e>
 7000690:	43 c5 18 00 	ld.h	24[sp],r10
 7000694:	4a b5 ff ff 	andi	65535, r10, r10
 7000698:	ca 00       	mov	r10, r6
 700069a:	40 bd 00 07 	movhi	1792, r0, r10
 700069e:	4a a1 90 02 	movea	656, r10, r10
 70006a2:	00 ac 04 00 	jal	70006a6 <_vbFXFadeOut+0x2e>
 70006a6:	e4 47       	add	4, lp
 70006a8:	0a 18       	jmp	[r10]
 70006aa:	40 bd 00 05 	movhi	1280, r0, r10
 70006ae:	4a a1 00 00 	movea	0, r10, r10
 70006b2:	4a cd 00 00 	ld.w	0[r10],r10
 70006b6:	4a a5 24 00 	addi	36, r10, r10
 70006ba:	63 c1 13 00 	ld.b	19[sp],r11
 70006be:	78 51       	shl	24, r11
 70006c0:	78 5d       	sar	24, r11
 70006c2:	6b b5 ff ff 	andi	65535, r11, r11
 70006c6:	6a d5 00 00 	st.h	r11, 0[r10]
 70006ca:	40 bd 00 05 	movhi	1280, r0, r10
 70006ce:	4a a1 00 00 	movea	0, r10, r10
 70006d2:	4a cd 00 00 	ld.w	0[r10],r10
 70006d6:	6a a5 26 00 	addi	38, r10, r11
 70006da:	43 c1 13 00 	ld.b	19[sp],r10
 70006de:	58 51       	shl	24, r10
 70006e0:	58 5d       	sar	24, r10
 70006e2:	4a 05       	add	r10, r10
 70006e4:	4a b5 ff ff 	andi	65535, r10, r10
 70006e8:	4b d5 00 00 	st.h	r10, 0[r11]
 70006ec:	40 bd 00 05 	movhi	1280, r0, r10
 70006f0:	4a a1 00 00 	movea	0, r10, r10
 70006f4:	4a cd 00 00 	ld.w	0[r10],r10
 70006f8:	4a a5 28 00 	addi	40, r10, r10
 70006fc:	63 c1 13 00 	ld.b	19[sp],r11
 7000700:	78 51       	shl	24, r11
 7000702:	78 5d       	sar	24, r11
 7000704:	6b b5 ff ff 	andi	65535, r11, r11
 7000708:	6a d5 00 00 	st.h	r11, 0[r10]
 700070c:	43 c1 13 00 	ld.b	19[sp],r10
 7000710:	5f 45       	add	-1, r10
 7000712:	43 d1 13 00 	st.b	r10, 19[sp]
 7000716:	43 c1 13 00 	ld.b	19[sp],r10
 700071a:	58 51       	shl	24, r10
 700071c:	58 5d       	sar	24, r10
 700071e:	40 0d       	cmp	r0, r10
 7000720:	70 9d       	bge	7000690 <_vbFXFadeOut+0x18>
 7000722:	e3 cf 14 00 	ld.w	20[sp],lp
 7000726:	63 a4 18 00 	addi	24, sp, sp
 700072a:	1f 18       	jmp	[lp]

0700072c <_vbSetColTable>:
 700072c:	7c 44       	add	-4, sp
 700072e:	03 d0 03 00 	st.b	r0, 3[sp]
 7000732:	00 a8 06 01 	jr	7000838 <_vbSetColTable+0x10c>
 7000736:	40 bd 00 07 	movhi	1792, r0, r10
 700073a:	4a a1 50 69 	movea	26960, r10, r10
 700073e:	6a cd 00 00 	ld.w	0[r10],r11
 7000742:	43 c1 03 00 	ld.b	3[sp],r10
 7000746:	4a b5 ff 00 	andi	255, r10, r10
 700074a:	4a 05       	add	r10, r10
 700074c:	4b 05       	add	r11, r10
 700074e:	60 bd 00 07 	movhi	1792, r0, r11
 7000752:	8b a1 58 69 	movea	26968, r11, r12
 7000756:	63 c1 03 00 	ld.b	3[sp],r11
 700075a:	6b b5 ff 00 	andi	255, r11, r11
 700075e:	6c 05       	add	r12, r11
 7000760:	6b c1 00 00 	ld.b	0[r11],r11
 7000764:	6b b5 ff 00 	andi	255, r11, r11
 7000768:	6a d5 00 00 	st.h	r11, 0[r10]
 700076c:	40 bd 00 07 	movhi	1792, r0, r10
 7000770:	4a a1 50 69 	movea	26960, r10, r10
 7000774:	6a cd 00 00 	ld.w	0[r10],r11
 7000778:	43 c1 03 00 	ld.b	3[sp],r10
 700077c:	4a b5 ff 00 	andi	255, r10, r10
 7000780:	4a a5 00 01 	addi	256, r10, r10
 7000784:	4a 05       	add	r10, r10
 7000786:	4b 05       	add	r11, r10
 7000788:	60 bd 00 07 	movhi	1792, r0, r11
 700078c:	8b a1 58 69 	movea	26968, r11, r12
 7000790:	63 c1 03 00 	ld.b	3[sp],r11
 7000794:	6b b5 ff 00 	andi	255, r11, r11
 7000798:	6c 05       	add	r12, r11
 700079a:	6b c1 00 00 	ld.b	0[r11],r11
 700079e:	6b b5 ff 00 	andi	255, r11, r11
 70007a2:	6a d5 00 00 	st.h	r11, 0[r10]
 70007a6:	40 bd 00 07 	movhi	1792, r0, r10
 70007aa:	4a a1 50 69 	movea	26960, r10, r10
 70007ae:	6a cd 00 00 	ld.w	0[r10],r11
 70007b2:	43 c1 03 00 	ld.b	3[sp],r10
 70007b6:	4a b5 ff 00 	andi	255, r10, r10
 70007ba:	4a a5 80 00 	addi	128, r10, r10
 70007be:	4a 05       	add	r10, r10
 70007c0:	4b 05       	add	r11, r10
 70007c2:	63 c1 03 00 	ld.b	3[sp],r11
 70007c6:	6b b5 ff 00 	andi	255, r11, r11
 70007ca:	80 a1 7f 00 	movea	127, r0, r12
 70007ce:	ac 01       	mov	r12, r13
 70007d0:	ab 09       	sub	r11, r13
 70007d2:	6d 01       	mov	r13, r11
 70007d4:	80 bd 00 07 	movhi	1792, r0, r12
 70007d8:	8c a1 58 69 	movea	26968, r12, r12
 70007dc:	6c 05       	add	r12, r11
 70007de:	6b c1 00 00 	ld.b	0[r11],r11
 70007e2:	6b b5 ff 00 	andi	255, r11, r11
 70007e6:	6a d5 00 00 	st.h	r11, 0[r10]
 70007ea:	40 bd 00 07 	movhi	1792, r0, r10
 70007ee:	4a a1 50 69 	movea	26960, r10, r10
 70007f2:	6a cd 00 00 	ld.w	0[r10],r11
 70007f6:	43 c1 03 00 	ld.b	3[sp],r10
 70007fa:	4a b5 ff 00 	andi	255, r10, r10
 70007fe:	4a a5 80 01 	addi	384, r10, r10
 7000802:	4a 05       	add	r10, r10
 7000804:	4b 05       	add	r11, r10
 7000806:	63 c1 03 00 	ld.b	3[sp],r11
 700080a:	6b b5 ff 00 	andi	255, r11, r11
 700080e:	80 a1 7f 00 	movea	127, r0, r12
 7000812:	ac 01       	mov	r12, r13
 7000814:	ab 09       	sub	r11, r13
 7000816:	6d 01       	mov	r13, r11
 7000818:	80 bd 00 07 	movhi	1792, r0, r12
 700081c:	8c a1 58 69 	movea	26968, r12, r12
 7000820:	6c 05       	add	r12, r11
 7000822:	6b c1 00 00 	ld.b	0[r11],r11
 7000826:	6b b5 ff 00 	andi	255, r11, r11
 700082a:	6a d5 00 00 	st.h	r11, 0[r10]
 700082e:	43 c1 03 00 	ld.b	3[sp],r10
 7000832:	41 45       	add	1, r10
 7000834:	43 d1 03 00 	st.b	r10, 3[sp]
 7000838:	43 c1 03 00 	ld.b	3[sp],r10
 700083c:	58 51       	shl	24, r10
 700083e:	58 5d       	sar	24, r10
 7000840:	40 0d       	cmp	r0, r10
 7000842:	06 8c       	blt	7000848 <_vbSetColTable+0x11c>
 7000844:	ff ab f2 fe 	jr	7000736 <_vbSetColTable+0xa>
 7000848:	64 44       	add	4, sp
 700084a:	1f 18       	jmp	[lp]

0700084c <_affine_clr_param>:
 700084c:	74 44       	add	-12, sp
 700084e:	46 01       	mov	r6, r10
 7000850:	43 d1 0c 00 	st.b	r10, 12[sp]
 7000854:	43 c1 0c 00 	ld.b	12[sp],r10
 7000858:	4a b5 ff 00 	andi	255, r10, r10
 700085c:	44 51       	shl	4, r10
 700085e:	43 dd 04 00 	st.w	r10, 4[sp]
 7000862:	40 bd 00 07 	movhi	1792, r0, r10
 7000866:	4a a1 4c 69 	movea	26956, r10, r10
 700086a:	6a cd 00 00 	ld.w	0[r10],r11
 700086e:	43 cd 04 00 	ld.w	4[sp],r10
 7000872:	49 45       	add	9, r10
 7000874:	4a 05       	add	r10, r10
 7000876:	4b 05       	add	r11, r10
 7000878:	4a c5 00 00 	ld.h	0[r10],r10
 700087c:	4a b5 ff ff 	andi	65535, r10, r10
 7000880:	4a 05       	add	r10, r10
 7000882:	60 bd 02 00 	movhi	2, r0, r11
 7000886:	4b 05       	add	r11, r10
 7000888:	43 dd 08 00 	st.w	r10, 8[sp]
 700088c:	03 dc 00 00 	st.w	r0, 0[sp]
 7000890:	1c 8a       	br	70008ac <_affine_clr_param+0x60>
 7000892:	43 cd 00 00 	ld.w	0[sp],r10
 7000896:	4a 05       	add	r10, r10
 7000898:	63 cd 08 00 	ld.w	8[sp],r11
 700089c:	4b 05       	add	r11, r10
 700089e:	0a d4 00 00 	st.h	r0, 0[r10]
 70008a2:	43 cd 00 00 	ld.w	0[sp],r10
 70008a6:	41 45       	add	1, r10
 70008a8:	43 dd 00 00 	st.w	r10, 0[sp]
 70008ac:	40 bd 00 07 	movhi	1792, r0, r10
 70008b0:	4a a1 4c 69 	movea	26956, r10, r10
 70008b4:	6a cd 00 00 	ld.w	0[r10],r11
 70008b8:	43 cd 04 00 	ld.w	4[sp],r10
 70008bc:	48 45       	add	8, r10
 70008be:	4a 05       	add	r10, r10
 70008c0:	4b 05       	add	r11, r10
 70008c2:	4a c5 00 00 	ld.h	0[r10],r10
 70008c6:	4a b5 ff ff 	andi	65535, r10, r10
 70008ca:	43 51       	shl	3, r10
 70008cc:	63 cd 00 00 	ld.w	0[sp],r11
 70008d0:	4b 0d       	cmp	r11, r10
 70008d2:	c0 9f       	bgt	7000892 <_affine_clr_param+0x46>
 70008d4:	6c 44       	add	12, sp
 70008d6:	1f 18       	jmp	[lp]

070008d8 <_affine_scale>:
 70008d8:	63 a4 e4 ff 	addi	-28, sp, sp
 70008dc:	c6 01       	mov	r6, r14
 70008de:	a7 01       	mov	r7, r13
 70008e0:	88 01       	mov	r8, r12
 70008e2:	69 01       	mov	r9, r11
 70008e4:	43 cd 2c 00 	ld.w	44[sp],r10
 70008e8:	c3 d1 1c 00 	st.b	r14, 28[sp]
 70008ec:	a3 d5 20 00 	st.h	r13, 32[sp]
 70008f0:	83 d5 24 00 	st.h	r12, 36[sp]
 70008f4:	63 d5 28 00 	st.h	r11, 40[sp]
 70008f8:	43 d5 00 00 	st.h	r10, 0[sp]
 70008fc:	43 c1 1c 00 	ld.b	28[sp],r10
 7000900:	4a b5 ff 00 	andi	255, r10, r10
 7000904:	44 51       	shl	4, r10
 7000906:	43 dd 08 00 	st.w	r10, 8[sp]
 700090a:	40 bd 00 07 	movhi	1792, r0, r10
 700090e:	4a a1 4c 69 	movea	26956, r10, r10
 7000912:	6a cd 00 00 	ld.w	0[r10],r11
 7000916:	43 cd 08 00 	ld.w	8[sp],r10
 700091a:	49 45       	add	9, r10
 700091c:	4a 05       	add	r10, r10
 700091e:	4b 05       	add	r11, r10
 7000920:	4a c5 00 00 	ld.h	0[r10],r10
 7000924:	4a b5 ff ff 	andi	65535, r10, r10
 7000928:	4a 05       	add	r10, r10
 700092a:	60 bd 02 00 	movhi	2, r0, r11
 700092e:	4b 05       	add	r11, r10
 7000930:	43 dd 0c 00 	st.w	r10, 12[sp]
 7000934:	63 cd 30 00 	ld.w	48[sp],r11
 7000938:	40 bd 00 44 	movhi	17408, r0, r10
 700093c:	4b f9 00 18 	mulf.s	r11, r10
 7000940:	4a f9 00 0c 	.long	0x0c00f94a
 7000944:	60 bd 04 00 	movhi	4, r0, r11
 7000948:	8b 01       	mov	r11, r12
 700094a:	8a 25       	div	r10, r12
 700094c:	4c 01       	mov	r12, r10
 700094e:	43 d5 14 00 	st.h	r10, 20[sp]
 7000952:	63 cd 34 00 	ld.w	52[sp],r11
 7000956:	40 bd 00 44 	movhi	17408, r0, r10
 700095a:	4b f9 00 18 	mulf.s	r11, r10
 700095e:	4a f9 00 0c 	.long	0x0c00f94a
 7000962:	60 bd 04 00 	movhi	4, r0, r11
 7000966:	ab 01       	mov	r11, r13
 7000968:	aa 25       	div	r10, r13
 700096a:	4d 01       	mov	r13, r10
 700096c:	43 d5 16 00 	st.h	r10, 22[sp]
 7000970:	43 c5 20 00 	ld.h	32[sp],r10
 7000974:	50 51       	shl	16, r10
 7000976:	50 5d       	sar	16, r10
 7000978:	4a f9 00 08 	.long	0x0800f94a
 700097c:	63 c5 28 00 	ld.h	40[sp],r11
 7000980:	6b b5 ff ff 	andi	65535, r11, r11
 7000984:	8b f9 00 08 	.long	0x0800f98b
 7000988:	63 cd 30 00 	ld.w	48[sp],r11
 700098c:	8b f9 00 18 	mulf.s	r11, r12
 7000990:	60 bd 00 c0 	movhi	-16384, r0, r11
 7000994:	ac 01       	mov	r12, r13
 7000996:	ab f9 00 1c 	divf.s	r11, r13
 700099a:	6d 01       	mov	r13, r11
 700099c:	4b f9 00 10 	addf.s	r11, r10
 70009a0:	63 cd 30 00 	ld.w	48[sp],r11
 70009a4:	4b f9 00 1c 	divf.s	r11, r10
 70009a8:	60 bd 00 41 	movhi	16640, r0, r11
 70009ac:	4b f9 00 18 	mulf.s	r11, r10
 70009b0:	4a f9 00 0c 	.long	0x0c00f94a
 70009b4:	4a 3d       	not	r10, r10
 70009b6:	41 45       	add	1, r10
 70009b8:	43 d5 12 00 	st.h	r10, 18[sp]
 70009bc:	43 c5 24 00 	ld.h	36[sp],r10
 70009c0:	50 51       	shl	16, r10
 70009c2:	50 5d       	sar	16, r10
 70009c4:	4a f9 00 08 	.long	0x0800f94a
 70009c8:	63 c5 00 00 	ld.h	0[sp],r11
 70009cc:	6b b5 ff ff 	andi	65535, r11, r11
 70009d0:	8b f9 00 08 	.long	0x0800f98b
 70009d4:	63 cd 34 00 	ld.w	52[sp],r11
 70009d8:	8b f9 00 18 	mulf.s	r11, r12
 70009dc:	60 bd 00 c0 	movhi	-16384, r0, r11
 70009e0:	ac 01       	mov	r12, r13
 70009e2:	ab f9 00 1c 	divf.s	r11, r13
 70009e6:	6d 01       	mov	r13, r11
 70009e8:	4b f9 00 10 	addf.s	r11, r10
 70009ec:	63 cd 34 00 	ld.w	52[sp],r11
 70009f0:	4b f9 00 1c 	divf.s	r11, r10
 70009f4:	60 bd 00 44 	movhi	17408, r0, r11
 70009f8:	4b f9 00 18 	mulf.s	r11, r10
 70009fc:	4a f9 00 0c 	.long	0x0c00f94a
 7000a00:	4a 3d       	not	r10, r10
 7000a02:	41 45       	add	1, r10
 7000a04:	43 dd 18 00 	st.w	r10, 24[sp]
 7000a08:	03 dc 04 00 	st.w	r0, 4[sp]
 7000a0c:	88 8a       	br	7000a94 <_affine_scale+0x1bc>
 7000a0e:	43 cd 04 00 	ld.w	4[sp],r10
 7000a12:	4a 05       	add	r10, r10
 7000a14:	63 cd 0c 00 	ld.w	12[sp],r11
 7000a18:	4b 05       	add	r11, r10
 7000a1a:	63 c5 12 00 	ld.h	18[sp],r11
 7000a1e:	6a d5 00 00 	st.h	r11, 0[r10]
 7000a22:	43 cd 04 00 	ld.w	4[sp],r10
 7000a26:	41 45       	add	1, r10
 7000a28:	43 dd 04 00 	st.w	r10, 4[sp]
 7000a2c:	43 cd 04 00 	ld.w	4[sp],r10
 7000a30:	41 45       	add	1, r10
 7000a32:	43 dd 04 00 	st.w	r10, 4[sp]
 7000a36:	43 cd 04 00 	ld.w	4[sp],r10
 7000a3a:	4a 05       	add	r10, r10
 7000a3c:	63 cd 0c 00 	ld.w	12[sp],r11
 7000a40:	4b 05       	add	r11, r10
 7000a42:	63 cd 18 00 	ld.w	24[sp],r11
 7000a46:	66 5d       	sar	6, r11
 7000a48:	70 51       	shl	16, r11
 7000a4a:	70 5d       	sar	16, r11
 7000a4c:	6a d5 00 00 	st.h	r11, 0[r10]
 7000a50:	43 cd 04 00 	ld.w	4[sp],r10
 7000a54:	41 45       	add	1, r10
 7000a56:	43 dd 04 00 	st.w	r10, 4[sp]
 7000a5a:	43 cd 04 00 	ld.w	4[sp],r10
 7000a5e:	4a 05       	add	r10, r10
 7000a60:	63 cd 0c 00 	ld.w	12[sp],r11
 7000a64:	4b 05       	add	r11, r10
 7000a66:	63 c5 14 00 	ld.h	20[sp],r11
 7000a6a:	6a d5 00 00 	st.h	r11, 0[r10]
 7000a6e:	43 cd 04 00 	ld.w	4[sp],r10
 7000a72:	41 45       	add	1, r10
 7000a74:	43 dd 04 00 	st.w	r10, 4[sp]
 7000a78:	43 cd 04 00 	ld.w	4[sp],r10
 7000a7c:	44 45       	add	4, r10
 7000a7e:	43 dd 04 00 	st.w	r10, 4[sp]
 7000a82:	43 c5 16 00 	ld.h	22[sp],r10
 7000a86:	50 51       	shl	16, r10
 7000a88:	50 5d       	sar	16, r10
 7000a8a:	63 cd 18 00 	ld.w	24[sp],r11
 7000a8e:	4b 05       	add	r11, r10
 7000a90:	43 dd 18 00 	st.w	r10, 24[sp]
 7000a94:	40 bd 00 07 	movhi	1792, r0, r10
 7000a98:	4a a1 4c 69 	movea	26956, r10, r10
 7000a9c:	6a cd 00 00 	ld.w	0[r10],r11
 7000aa0:	43 cd 08 00 	ld.w	8[sp],r10
 7000aa4:	48 45       	add	8, r10
 7000aa6:	4a 05       	add	r10, r10
 7000aa8:	4b 05       	add	r11, r10
 7000aaa:	4a c5 00 00 	ld.h	0[r10],r10
 7000aae:	4a b5 ff ff 	andi	65535, r10, r10
 7000ab2:	43 51       	shl	3, r10
 7000ab4:	63 cd 04 00 	ld.w	4[sp],r11
 7000ab8:	4b 0d       	cmp	r11, r10
 7000aba:	54 9f       	bgt	7000a0e <_affine_scale+0x136>
 7000abc:	63 a4 1c 00 	addi	28, sp, sp
 7000ac0:	1f 18       	jmp	[lp]
	...

07000ac4 <_affine_fast_scale>:
 7000ac4:	63 a4 ec ff 	addi	-20, sp, sp
 7000ac8:	46 01       	mov	r6, r10
 7000aca:	e3 dc 18 00 	st.w	r7, 24[sp]
 7000ace:	43 d1 14 00 	st.b	r10, 20[sp]
 7000ad2:	43 c1 14 00 	ld.b	20[sp],r10
 7000ad6:	4a b5 ff 00 	andi	255, r10, r10
 7000ada:	44 51       	shl	4, r10
 7000adc:	43 dd 04 00 	st.w	r10, 4[sp]
 7000ae0:	40 bd 00 07 	movhi	1792, r0, r10
 7000ae4:	4a a1 4c 69 	movea	26956, r10, r10
 7000ae8:	6a cd 00 00 	ld.w	0[r10],r11
 7000aec:	43 cd 04 00 	ld.w	4[sp],r10
 7000af0:	49 45       	add	9, r10
 7000af2:	4a 05       	add	r10, r10
 7000af4:	4b 05       	add	r11, r10
 7000af6:	4a c5 00 00 	ld.h	0[r10],r10
 7000afa:	4a b5 ff ff 	andi	65535, r10, r10
 7000afe:	4a 05       	add	r10, r10
 7000b00:	60 bd 02 00 	movhi	2, r0, r11
 7000b04:	4b 05       	add	r11, r10
 7000b06:	43 dd 08 00 	st.w	r10, 8[sp]
 7000b0a:	63 cd 18 00 	ld.w	24[sp],r11
 7000b0e:	40 bd 00 44 	movhi	17408, r0, r10
 7000b12:	4b f9 00 18 	mulf.s	r11, r10
 7000b16:	4a f9 00 0c 	.long	0x0c00f94a
 7000b1a:	60 bd 04 00 	movhi	4, r0, r11
 7000b1e:	8b 01       	mov	r11, r12
 7000b20:	8a 25       	div	r10, r12
 7000b22:	4c 01       	mov	r12, r10
 7000b24:	43 d5 0e 00 	st.h	r10, 14[sp]
 7000b28:	43 c5 0e 00 	ld.h	14[sp],r10
 7000b2c:	43 d5 0c 00 	st.h	r10, 12[sp]
 7000b30:	03 dc 10 00 	st.w	r0, 16[sp]
 7000b34:	03 dc 00 00 	st.w	r0, 0[sp]
 7000b38:	84 8a       	br	7000bbc <_affine_fast_scale+0xf8>
 7000b3a:	43 cd 00 00 	ld.w	0[sp],r10
 7000b3e:	4a 05       	add	r10, r10
 7000b40:	63 cd 08 00 	ld.w	8[sp],r11
 7000b44:	4b 05       	add	r11, r10
 7000b46:	0a d4 00 00 	st.h	r0, 0[r10]
 7000b4a:	43 cd 00 00 	ld.w	0[sp],r10
 7000b4e:	41 45       	add	1, r10
 7000b50:	43 dd 00 00 	st.w	r10, 0[sp]
 7000b54:	43 cd 00 00 	ld.w	0[sp],r10
 7000b58:	41 45       	add	1, r10
 7000b5a:	43 dd 00 00 	st.w	r10, 0[sp]
 7000b5e:	43 cd 00 00 	ld.w	0[sp],r10
 7000b62:	4a 05       	add	r10, r10
 7000b64:	63 cd 08 00 	ld.w	8[sp],r11
 7000b68:	4b 05       	add	r11, r10
 7000b6a:	63 cd 10 00 	ld.w	16[sp],r11
 7000b6e:	66 5d       	sar	6, r11
 7000b70:	70 51       	shl	16, r11
 7000b72:	70 5d       	sar	16, r11
 7000b74:	6a d5 00 00 	st.h	r11, 0[r10]
 7000b78:	43 cd 00 00 	ld.w	0[sp],r10
 7000b7c:	41 45       	add	1, r10
 7000b7e:	43 dd 00 00 	st.w	r10, 0[sp]
 7000b82:	43 cd 00 00 	ld.w	0[sp],r10
 7000b86:	4a 05       	add	r10, r10
 7000b88:	63 cd 08 00 	ld.w	8[sp],r11
 7000b8c:	4b 05       	add	r11, r10
 7000b8e:	63 c5 0c 00 	ld.h	12[sp],r11
 7000b92:	6a d5 00 00 	st.h	r11, 0[r10]
 7000b96:	43 cd 00 00 	ld.w	0[sp],r10
 7000b9a:	41 45       	add	1, r10
 7000b9c:	43 dd 00 00 	st.w	r10, 0[sp]
 7000ba0:	43 cd 00 00 	ld.w	0[sp],r10
 7000ba4:	44 45       	add	4, r10
 7000ba6:	43 dd 00 00 	st.w	r10, 0[sp]
 7000baa:	43 c5 0e 00 	ld.h	14[sp],r10
 7000bae:	50 51       	shl	16, r10
 7000bb0:	50 5d       	sar	16, r10
 7000bb2:	63 cd 10 00 	ld.w	16[sp],r11
 7000bb6:	4b 05       	add	r11, r10
 7000bb8:	43 dd 10 00 	st.w	r10, 16[sp]
 7000bbc:	40 bd 00 07 	movhi	1792, r0, r10
 7000bc0:	4a a1 4c 69 	movea	26956, r10, r10
 7000bc4:	6a cd 00 00 	ld.w	0[r10],r11
 7000bc8:	43 cd 04 00 	ld.w	4[sp],r10
 7000bcc:	48 45       	add	8, r10
 7000bce:	4a 05       	add	r10, r10
 7000bd0:	4b 05       	add	r11, r10
 7000bd2:	4a c5 00 00 	ld.h	0[r10],r10
 7000bd6:	4a b5 ff ff 	andi	65535, r10, r10
 7000bda:	43 51       	shl	3, r10
 7000bdc:	63 cd 00 00 	ld.w	0[sp],r11
 7000be0:	4b 0d       	cmp	r11, r10
 7000be2:	58 9f       	bgt	7000b3a <_affine_fast_scale+0x76>
 7000be4:	63 a4 14 00 	addi	20, sp, sp
 7000be8:	1f 18       	jmp	[lp]
	...

07000bec <_set_intlevel>:
 7000bec:	46 01       	mov	r6, r10
 7000bee:	43 d1 00 00 	st.b	r10, 0[sp]
 7000bf2:	43 c1 00 00 	ld.b	0[sp],r10
 7000bf6:	a5 74       	stsr	psw, r5
 7000bf8:	c0 bc f1 ff 	movhi	-15, r0, r6
 7000bfc:	c6 a0 ff ff 	movea	-1, r6, r6
 7000c00:	c5 34       	and	r5, r6
 7000c02:	aa 00       	mov	r10, r5
 7000c04:	a5 b4 0f 00 	andi	15, r5, r5
 7000c08:	b0 50       	shl	16, r5
 7000c0a:	a6 30       	or	r6, r5
 7000c0c:	a5 70       	ldsr	r5, psw
 7000c0e:	1f 18       	jmp	[lp]

07000c10 <_get_intlevel>:
 7000c10:	7c 44       	add	-4, sp
 7000c12:	a5 74       	stsr	psw, r5
 7000c14:	b0 54       	shr	16, r5
 7000c16:	a5 b4 0f 00 	andi	15, r5, r5
 7000c1a:	45 01       	mov	r5, r10
 7000c1c:	43 dd 00 00 	st.w	r10, 0[sp]
 7000c20:	43 cd 00 00 	ld.w	0[sp],r10
 7000c24:	64 44       	add	4, sp
 7000c26:	1f 18       	jmp	[lp]

07000c28 <_vbReadPad>:
 7000c28:	40 bd 00 07 	movhi	1792, r0, r10
 7000c2c:	4a a1 08 6a 	movea	27144, r10, r10
 7000c30:	4a cd 00 00 	ld.w	0[r10],r10
 7000c34:	4a a5 28 00 	addi	40, r10, r10
 7000c38:	60 a1 84 ff 	movea	-124, r0, r11
 7000c3c:	6a d1 00 00 	st.b	r11, 0[r10]
 7000c40:	40 bd 00 07 	movhi	1792, r0, r10
 7000c44:	4a a1 08 6a 	movea	27144, r10, r10
 7000c48:	4a cd 00 00 	ld.w	0[r10],r10
 7000c4c:	4a c1 28 00 	ld.b	40[r10],r10
 7000c50:	4a b5 ff 00 	andi	255, r10, r10
 7000c54:	4a b5 02 00 	andi	2, r10, r10
 7000c58:	40 0d       	cmp	r0, r10
 7000c5a:	e6 95       	bne	7000c40 <_vbReadPad+0x18>
 7000c5c:	40 bd 00 07 	movhi	1792, r0, r10
 7000c60:	4a a1 08 6a 	movea	27144, r10, r10
 7000c64:	4a cd 00 00 	ld.w	0[r10],r10
 7000c68:	4a c1 14 00 	ld.b	20[r10],r10
 7000c6c:	4a b5 ff 00 	andi	255, r10, r10
 7000c70:	48 51       	shl	8, r10
 7000c72:	60 bd 00 07 	movhi	1792, r0, r11
 7000c76:	6b a1 08 6a 	movea	27144, r11, r11
 7000c7a:	6b cd 00 00 	ld.w	0[r11],r11
 7000c7e:	6b c1 10 00 	ld.b	16[r11],r11
 7000c82:	8b b5 ff 00 	andi	255, r11, r12
 7000c86:	6a 01       	mov	r10, r11
 7000c88:	4c 01       	mov	r12, r10
 7000c8a:	4b 31       	or	r11, r10
 7000c8c:	4a b5 ff ff 	andi	65535, r10, r10
 7000c90:	1f 18       	jmp	[lp]
	...

07000c94 <_vbPadKeyDown>:
 7000c94:	63 a4 e8 ff 	addi	-24, sp, sp
 7000c98:	e3 df 14 00 	st.w	lp, 20[sp]
 7000c9c:	40 bd 00 07 	movhi	1792, r0, r10
 7000ca0:	4a a1 28 0c 	movea	3112, r10, r10
 7000ca4:	00 ac 04 00 	jal	7000ca8 <_vbPadKeyDown+0x14>
 7000ca8:	e4 47       	add	4, lp
 7000caa:	0a 18       	jmp	[r10]
 7000cac:	4a b5 ff ff 	andi	65535, r10, r10
 7000cb0:	7c 41       	mov	-4, r11
 7000cb2:	4b 35       	and	r11, r10
 7000cb4:	43 d5 10 00 	st.h	r10, 16[sp]
 7000cb8:	40 bd 00 05 	movhi	1280, r0, r10
 7000cbc:	4a a1 58 00 	movea	88, r10, r10
 7000cc0:	4a c5 00 00 	ld.h	0[r10],r10
 7000cc4:	4a b5 ff ff 	andi	65535, r10, r10
 7000cc8:	4a 3d       	not	r10, r10
 7000cca:	6a 01       	mov	r10, r11
 7000ccc:	43 c5 10 00 	ld.h	16[sp],r10
 7000cd0:	4b 35       	and	r11, r10
 7000cd2:	43 d5 12 00 	st.h	r10, 18[sp]
 7000cd6:	40 bd 00 05 	movhi	1280, r0, r10
 7000cda:	4a a1 58 00 	movea	88, r10, r10
 7000cde:	63 c5 10 00 	ld.h	16[sp],r11
 7000ce2:	6a d5 00 00 	st.h	r11, 0[r10]
 7000ce6:	43 c5 12 00 	ld.h	18[sp],r10
 7000cea:	4a b5 ff ff 	andi	65535, r10, r10
 7000cee:	e3 cf 14 00 	ld.w	20[sp],lp
 7000cf2:	63 a4 18 00 	addi	24, sp, sp
 7000cf6:	1f 18       	jmp	[lp]

07000cf8 <_vbPadKeyUp>:
 7000cf8:	63 a4 e8 ff 	addi	-24, sp, sp
 7000cfc:	e3 df 14 00 	st.w	lp, 20[sp]
 7000d00:	40 bd 00 07 	movhi	1792, r0, r10
 7000d04:	4a a1 28 0c 	movea	3112, r10, r10
 7000d08:	00 ac 04 00 	jal	7000d0c <_vbPadKeyUp+0x14>
 7000d0c:	e4 47       	add	4, lp
 7000d0e:	0a 18       	jmp	[r10]
 7000d10:	4a b5 ff ff 	andi	65535, r10, r10
 7000d14:	7c 41       	mov	-4, r11
 7000d16:	4b 35       	and	r11, r10
 7000d18:	43 d5 10 00 	st.h	r10, 16[sp]
 7000d1c:	40 bd 00 05 	movhi	1280, r0, r10
 7000d20:	4a a1 5a 00 	movea	90, r10, r10
 7000d24:	4a c5 00 00 	ld.h	0[r10],r10
 7000d28:	4a b5 ff ff 	andi	65535, r10, r10
 7000d2c:	63 c5 10 00 	ld.h	16[sp],r11
 7000d30:	6b 3d       	not	r11, r11
 7000d32:	4b 35       	and	r11, r10
 7000d34:	43 d5 12 00 	st.h	r10, 18[sp]
 7000d38:	40 bd 00 05 	movhi	1280, r0, r10
 7000d3c:	4a a1 5a 00 	movea	90, r10, r10
 7000d40:	63 c5 10 00 	ld.h	16[sp],r11
 7000d44:	6a d5 00 00 	st.h	r11, 0[r10]
 7000d48:	43 c5 12 00 	ld.h	18[sp],r10
 7000d4c:	4a b5 ff ff 	andi	65535, r10, r10
 7000d50:	e3 cf 14 00 	ld.w	20[sp],lp
 7000d54:	63 a4 18 00 	addi	24, sp, sp
 7000d58:	1f 18       	jmp	[lp]
	...

07000d5c <_copymem>:
 7000d5c:	7c 44       	add	-4, sp
 7000d5e:	c3 dc 04 00 	st.w	r6, 4[sp]
 7000d62:	e3 dc 08 00 	st.w	r7, 8[sp]
 7000d66:	48 01       	mov	r8, r10
 7000d68:	43 d5 0c 00 	st.h	r10, 12[sp]
 7000d6c:	03 d4 02 00 	st.h	r0, 2[sp]
 7000d70:	34 8a       	br	7000da4 <_copymem+0x48>
 7000d72:	43 cd 08 00 	ld.w	8[sp],r10
 7000d76:	4a c1 00 00 	ld.b	0[r10],r10
 7000d7a:	6a b5 ff 00 	andi	255, r10, r11
 7000d7e:	43 cd 04 00 	ld.w	4[sp],r10
 7000d82:	6a d1 00 00 	st.b	r11, 0[r10]
 7000d86:	43 cd 04 00 	ld.w	4[sp],r10
 7000d8a:	41 45       	add	1, r10
 7000d8c:	43 dd 04 00 	st.w	r10, 4[sp]
 7000d90:	43 cd 08 00 	ld.w	8[sp],r10
 7000d94:	41 45       	add	1, r10
 7000d96:	43 dd 08 00 	st.w	r10, 8[sp]
 7000d9a:	43 c5 02 00 	ld.h	2[sp],r10
 7000d9e:	41 45       	add	1, r10
 7000da0:	43 d5 02 00 	st.h	r10, 2[sp]
 7000da4:	43 c5 02 00 	ld.h	2[sp],r10
 7000da8:	6a b5 ff ff 	andi	65535, r10, r11
 7000dac:	43 c5 0c 00 	ld.h	12[sp],r10
 7000db0:	4a b5 ff ff 	andi	65535, r10, r10
 7000db4:	6a 0d       	cmp	r10, r11
 7000db6:	bc 83       	bc	7000d72 <_copymem+0x16>
 7000db8:	64 44       	add	4, sp
 7000dba:	1f 18       	jmp	[lp]

07000dbc <_setmem>:
 7000dbc:	7c 44       	add	-4, sp
 7000dbe:	c3 dc 04 00 	st.w	r6, 4[sp]
 7000dc2:	67 01       	mov	r7, r11
 7000dc4:	48 01       	mov	r8, r10
 7000dc6:	63 d1 08 00 	st.b	r11, 8[sp]
 7000dca:	43 d5 0c 00 	st.h	r10, 12[sp]
 7000dce:	03 d4 02 00 	st.h	r0, 2[sp]
 7000dd2:	22 8a       	br	7000df4 <_setmem+0x38>
 7000dd4:	43 cd 04 00 	ld.w	4[sp],r10
 7000dd8:	63 c1 08 00 	ld.b	8[sp],r11
 7000ddc:	6a d1 00 00 	st.b	r11, 0[r10]
 7000de0:	43 cd 04 00 	ld.w	4[sp],r10
 7000de4:	41 45       	add	1, r10
 7000de6:	43 dd 04 00 	st.w	r10, 4[sp]
 7000dea:	43 c5 02 00 	ld.h	2[sp],r10
 7000dee:	41 45       	add	1, r10
 7000df0:	43 d5 02 00 	st.h	r10, 2[sp]
 7000df4:	43 c5 02 00 	ld.h	2[sp],r10
 7000df8:	6a b5 ff ff 	andi	65535, r10, r11
 7000dfc:	43 c5 0c 00 	ld.h	12[sp],r10
 7000e00:	4a b5 ff ff 	andi	65535, r10, r10
 7000e04:	6a 0d       	cmp	r10, r11
 7000e06:	ce 83       	bc	7000dd4 <_setmem+0x18>
 7000e08:	64 44       	add	4, sp
 7000e0a:	1f 18       	jmp	[lp]

07000e0c <_addmem>:
 7000e0c:	7c 44       	add	-4, sp
 7000e0e:	c3 dc 04 00 	st.w	r6, 4[sp]
 7000e12:	e3 dc 08 00 	st.w	r7, 8[sp]
 7000e16:	68 01       	mov	r8, r11
 7000e18:	49 01       	mov	r9, r10
 7000e1a:	63 d5 0c 00 	st.h	r11, 12[sp]
 7000e1e:	43 d1 10 00 	st.b	r10, 16[sp]
 7000e22:	03 d4 02 00 	st.h	r0, 2[sp]
 7000e26:	3e 8a       	br	7000e64 <_addmem+0x58>
 7000e28:	43 cd 08 00 	ld.w	8[sp],r10
 7000e2c:	4a c1 00 00 	ld.b	0[r10],r10
 7000e30:	6a b5 ff 00 	andi	255, r10, r11
 7000e34:	43 c1 10 00 	ld.b	16[sp],r10
 7000e38:	4b 05       	add	r11, r10
 7000e3a:	6a b5 ff 00 	andi	255, r10, r11
 7000e3e:	43 cd 04 00 	ld.w	4[sp],r10
 7000e42:	6a d1 00 00 	st.b	r11, 0[r10]
 7000e46:	43 cd 04 00 	ld.w	4[sp],r10
 7000e4a:	41 45       	add	1, r10
 7000e4c:	43 dd 04 00 	st.w	r10, 4[sp]
 7000e50:	43 cd 08 00 	ld.w	8[sp],r10
 7000e54:	41 45       	add	1, r10
 7000e56:	43 dd 08 00 	st.w	r10, 8[sp]
 7000e5a:	43 c5 02 00 	ld.h	2[sp],r10
 7000e5e:	41 45       	add	1, r10
 7000e60:	43 d5 02 00 	st.h	r10, 2[sp]
 7000e64:	43 c5 02 00 	ld.h	2[sp],r10
 7000e68:	6a b5 ff ff 	andi	65535, r10, r11
 7000e6c:	43 c5 0c 00 	ld.h	12[sp],r10
 7000e70:	4a b5 ff ff 	andi	65535, r10, r10
 7000e74:	6a 0d       	cmp	r10, r11
 7000e76:	b2 83       	bc	7000e28 <_addmem+0x1c>
 7000e78:	64 44       	add	4, sp
 7000e7a:	1f 18       	jmp	[lp]

07000e7c <_itoa>:
 7000e7c:	7c 44       	add	-4, sp
 7000e7e:	c3 dc 04 00 	st.w	r6, 4[sp]
 7000e82:	67 01       	mov	r7, r11
 7000e84:	48 01       	mov	r8, r10
 7000e86:	63 d1 08 00 	st.b	r11, 8[sp]
 7000e8a:	43 d1 0c 00 	st.b	r10, 12[sp]
 7000e8e:	03 dc 00 00 	st.w	r0, 0[sp]
 7000e92:	5e 8a       	br	7000ef0 <_itoa+0x74>
 7000e94:	69 41       	mov	9, r11
 7000e96:	43 cd 00 00 	ld.w	0[sp],r10
 7000e9a:	8b 01       	mov	r11, r12
 7000e9c:	8a 09       	sub	r10, r12
 7000e9e:	4c 01       	mov	r12, r10
 7000ea0:	63 c1 08 00 	ld.b	8[sp],r11
 7000ea4:	6b b5 ff 00 	andi	255, r11, r11
 7000ea8:	83 cd 04 00 	ld.w	4[sp],r12
 7000eac:	8b 2d       	divu	r11, r12
 7000eae:	7e 01       	mov	r30, r11
 7000eb0:	80 bd 00 07 	movhi	1792, r0, r12
 7000eb4:	8c a1 18 6a 	movea	27160, r12, r12
 7000eb8:	6c 05       	add	r12, r11
 7000eba:	6b c1 00 00 	ld.b	0[r11],r11
 7000ebe:	78 51       	shl	24, r11
 7000ec0:	78 5d       	sar	24, r11
 7000ec2:	80 bd 00 05 	movhi	1280, r0, r12
 7000ec6:	8c a1 ba 00 	movea	186, r12, r12
 7000eca:	4c 05       	add	r12, r10
 7000ecc:	6a d1 00 00 	st.b	r11, 0[r10]
 7000ed0:	43 c1 08 00 	ld.b	8[sp],r10
 7000ed4:	4a b5 ff 00 	andi	255, r10, r10
 7000ed8:	63 cd 04 00 	ld.w	4[sp],r11
 7000edc:	8b 01       	mov	r11, r12
 7000ede:	8a 2d       	divu	r10, r12
 7000ee0:	4c 01       	mov	r12, r10
 7000ee2:	43 dd 04 00 	st.w	r10, 4[sp]
 7000ee6:	43 cd 00 00 	ld.w	0[sp],r10
 7000eea:	41 45       	add	1, r10
 7000eec:	43 dd 00 00 	st.w	r10, 0[sp]
 7000ef0:	43 cd 00 00 	ld.w	0[sp],r10
 7000ef4:	49 4d       	cmp	9, r10
 7000ef6:	9e 8f       	ble	7000e94 <_itoa+0x18>
 7000ef8:	03 dc 00 00 	st.w	r0, 0[sp]
 7000efc:	0c 8a       	br	7000f08 <_itoa+0x8c>
 7000efe:	43 cd 00 00 	ld.w	0[sp],r10
 7000f02:	41 45       	add	1, r10
 7000f04:	43 dd 00 00 	st.w	r10, 0[sp]
 7000f08:	43 cd 00 00 	ld.w	0[sp],r10
 7000f0c:	60 bd 00 05 	movhi	1280, r0, r11
 7000f10:	6b a1 ba 00 	movea	186, r11, r11
 7000f14:	4b 05       	add	r11, r10
 7000f16:	4a c1 00 00 	ld.b	0[r10],r10
 7000f1a:	58 51       	shl	24, r10
 7000f1c:	6a 01       	mov	r10, r11
 7000f1e:	78 5d       	sar	24, r11
 7000f20:	40 a1 30 00 	movea	48, r0, r10
 7000f24:	6a 0d       	cmp	r10, r11
 7000f26:	d8 85       	be	7000efe <_itoa+0x82>
 7000f28:	43 c1 0c 00 	ld.b	12[sp],r10
 7000f2c:	4a b5 ff 00 	andi	255, r10, r10
 7000f30:	6a 41       	mov	10, r11
 7000f32:	6a 09       	sub	r10, r11
 7000f34:	43 cd 00 00 	ld.w	0[sp],r10
 7000f38:	6a 0d       	cmp	r10, r11
 7000f3a:	16 9e       	bgt	7000f50 <_itoa+0xd4>
 7000f3c:	43 c1 0c 00 	ld.b	12[sp],r10
 7000f40:	4a b5 ff 00 	andi	255, r10, r10
 7000f44:	6a 41       	mov	10, r11
 7000f46:	8b 01       	mov	r11, r12
 7000f48:	8a 09       	sub	r10, r12
 7000f4a:	4c 01       	mov	r12, r10
 7000f4c:	43 dd 00 00 	st.w	r10, 0[sp]
 7000f50:	40 bd 00 05 	movhi	1280, r0, r10
 7000f54:	4a a1 ba 00 	movea	186, r10, r10
 7000f58:	0a d0 0a 00 	st.b	r0, 10[r10]
 7000f5c:	43 cd 00 00 	ld.w	0[sp],r10
 7000f60:	60 bd 00 05 	movhi	1280, r0, r11
 7000f64:	6b a1 ba 00 	movea	186, r11, r11
 7000f68:	4b 05       	add	r11, r10
 7000f6a:	64 44       	add	4, sp
 7000f6c:	1f 18       	jmp	[lp]
	...

07000f70 <_cls>:
 7000f70:	63 a4 ec ff 	addi	-20, sp, sp
 7000f74:	e3 df 10 00 	st.w	lp, 16[sp]
 7000f78:	c0 bc 02 00 	movhi	2, r0, r6
 7000f7c:	e0 40       	mov	0, r7
 7000f7e:	00 a1 00 20 	movea	8192, r0, r8
 7000f82:	40 bd 00 07 	movhi	1792, r0, r10
 7000f86:	4a a1 bc 0d 	movea	3516, r10, r10
 7000f8a:	00 ac 04 00 	jal	7000f8e <_cls+0x1e>
 7000f8e:	e4 47       	add	4, lp
 7000f90:	0a 18       	jmp	[r10]
 7000f92:	e3 cf 10 00 	ld.w	16[sp],lp
 7000f96:	63 a4 14 00 	addi	20, sp, sp
 7000f9a:	1f 18       	jmp	[lp]

07000f9c <_vbTextOut>:
 7000f9c:	7c 44       	add	-4, sp
 7000f9e:	86 01       	mov	r6, r12
 7000fa0:	67 01       	mov	r7, r11
 7000fa2:	48 01       	mov	r8, r10
 7000fa4:	23 dd 10 00 	st.w	r9, 16[sp]
 7000fa8:	83 d5 04 00 	st.h	r12, 4[sp]
 7000fac:	63 d5 08 00 	st.h	r11, 8[sp]
 7000fb0:	43 d5 0c 00 	st.h	r10, 12[sp]
 7000fb4:	03 d4 00 00 	st.h	r0, 0[sp]
 7000fb8:	43 c5 0c 00 	ld.h	12[sp],r10
 7000fbc:	46 51       	shl	6, r10
 7000fbe:	6a 01       	mov	r10, r11
 7000fc0:	43 c5 08 00 	ld.h	8[sp],r10
 7000fc4:	4b 05       	add	r11, r10
 7000fc6:	43 d5 02 00 	st.h	r10, 2[sp]
 7000fca:	5c 8a       	br	7001026 <_vbTextOut+0x8a>
 7000fcc:	40 bd 00 07 	movhi	1792, r0, r10
 7000fd0:	4a a1 48 69 	movea	26952, r10, r10
 7000fd4:	6a cd 00 00 	ld.w	0[r10],r11
 7000fd8:	43 c5 04 00 	ld.h	4[sp],r10
 7000fdc:	4a b5 ff ff 	andi	65535, r10, r10
 7000fe0:	4c 51       	shl	12, r10
 7000fe2:	83 c5 02 00 	ld.h	2[sp],r12
 7000fe6:	8c b5 ff ff 	andi	65535, r12, r12
 7000fea:	8a 05       	add	r10, r12
 7000fec:	43 c5 00 00 	ld.h	0[sp],r10
 7000ff0:	4a b5 ff ff 	andi	65535, r10, r10
 7000ff4:	4c 05       	add	r12, r10
 7000ff6:	4a 05       	add	r10, r10
 7000ff8:	4b 05       	add	r11, r10
 7000ffa:	63 c5 00 00 	ld.h	0[sp],r11
 7000ffe:	6b b5 ff ff 	andi	65535, r11, r11
 7001002:	83 cd 10 00 	ld.w	16[sp],r12
 7001006:	6c 05       	add	r12, r11
 7001008:	6b c1 00 00 	ld.b	0[r11],r11
 700100c:	78 51       	shl	24, r11
 700100e:	78 5d       	sar	24, r11
 7001010:	6b a5 00 06 	addi	1536, r11, r11
 7001014:	6b b5 ff ff 	andi	65535, r11, r11
 7001018:	6a d5 00 00 	st.h	r11, 0[r10]
 700101c:	43 c5 00 00 	ld.h	0[sp],r10
 7001020:	41 45       	add	1, r10
 7001022:	43 d5 00 00 	st.h	r10, 0[sp]
 7001026:	43 c5 00 00 	ld.h	0[sp],r10
 700102a:	4a b5 ff ff 	andi	65535, r10, r10
 700102e:	63 cd 10 00 	ld.w	16[sp],r11
 7001032:	4b 05       	add	r11, r10
 7001034:	4a c1 00 00 	ld.b	0[r10],r10
 7001038:	58 51       	shl	24, r10
 700103a:	58 5d       	sar	24, r10
 700103c:	40 0d       	cmp	r0, r10
 700103e:	8e 95       	bne	7000fcc <_vbTextOut+0x30>
 7001040:	64 44       	add	4, sp
 7001042:	1f 18       	jmp	[lp]

07001044 <_vbPrint>:
 7001044:	74 44       	add	-12, sp
 7001046:	a6 01       	mov	r6, r13
 7001048:	87 01       	mov	r7, r12
 700104a:	68 01       	mov	r8, r11
 700104c:	23 dd 18 00 	st.w	r9, 24[sp]
 7001050:	43 cd 1c 00 	ld.w	28[sp],r10
 7001054:	a3 d1 0c 00 	st.b	r13, 12[sp]
 7001058:	83 d5 10 00 	st.h	r12, 16[sp]
 700105c:	63 d5 14 00 	st.h	r11, 20[sp]
 7001060:	43 d5 00 00 	st.h	r10, 0[sp]
 7001064:	03 d4 06 00 	st.h	r0, 6[sp]
 7001068:	03 d4 08 00 	st.h	r0, 8[sp]
 700106c:	43 c5 10 00 	ld.h	16[sp],r10
 7001070:	43 d5 0a 00 	st.h	r10, 10[sp]
 7001074:	00 a8 24 01 	jr	7001198 <_vbPrint+0x154>
 7001078:	43 c5 14 00 	ld.h	20[sp],r10
 700107c:	46 51       	shl	6, r10
 700107e:	6a 01       	mov	r10, r11
 7001080:	43 c5 10 00 	ld.h	16[sp],r10
 7001084:	4b 05       	add	r11, r10
 7001086:	43 d5 08 00 	st.h	r10, 8[sp]
 700108a:	43 c5 06 00 	ld.h	6[sp],r10
 700108e:	4a b5 ff ff 	andi	65535, r10, r10
 7001092:	63 cd 18 00 	ld.w	24[sp],r11
 7001096:	4b 05       	add	r11, r10
 7001098:	4a c1 00 00 	ld.b	0[r10],r10
 700109c:	58 51       	shl	24, r10
 700109e:	8a 01       	mov	r10, r12
 70010a0:	98 5d       	sar	24, r12
 70010a2:	47 41       	mov	7, r10
 70010a4:	66 41       	mov	6, r11
 70010a6:	ac 01       	mov	r12, r13
 70010a8:	aa 09       	sub	r10, r13
 70010aa:	4d 01       	mov	r13, r10
 70010ac:	4b 0d       	cmp	r11, r10
 70010ae:	54 96       	bh	7001102 <_vbPrint+0xbe>
 70010b0:	41 51       	shl	1, r10
 70010b2:	60 bd 00 07 	movhi	1792, r0, r11
 70010b6:	6b a1 c8 10 	movea	4296, r11, r11
 70010ba:	4b 05       	add	r11, r10
 70010bc:	4a c5 00 00 	ld.h	0[r10],r10
 70010c0:	50 51       	shl	16, r10
 70010c2:	50 5d       	sar	16, r10
 70010c4:	4b 05       	add	r11, r10
 70010c6:	0a 18       	jmp	[r10]
 70010c8:	c4 00       	mov	gp, r6
 70010ca:	3a 00       	mov	r26, r1
 70010cc:	0e 00       	mov	r14, r0
 70010ce:	26 00       	mov	r6, r1
 70010d0:	3a 00       	mov	r26, r1
 70010d2:	3a 00       	mov	r26, r1
 70010d4:	c4 00       	mov	gp, r6
 70010d6:	43 c5 10 00 	ld.h	16[sp],r10
 70010da:	4a b5 ff ff 	andi	65535, r10, r10
 70010de:	42 55       	shr	2, r10
 70010e0:	4a b5 ff ff 	andi	65535, r10, r10
 70010e4:	41 45       	add	1, r10
 70010e6:	42 51       	shl	2, r10
 70010e8:	43 d5 10 00 	st.h	r10, 16[sp]
 70010ec:	a2 8a       	br	700118e <_vbPrint+0x14a>
 70010ee:	43 c5 14 00 	ld.h	20[sp],r10
 70010f2:	41 45       	add	1, r10
 70010f4:	43 d5 14 00 	st.h	r10, 20[sp]
 70010f8:	43 c5 0a 00 	ld.h	10[sp],r10
 70010fc:	43 d5 10 00 	st.h	r10, 16[sp]
 7001100:	8e 8a       	br	700118e <_vbPrint+0x14a>
 7001102:	40 bd 00 07 	movhi	1792, r0, r10
 7001106:	4a a1 48 69 	movea	26952, r10, r10
 700110a:	6a cd 00 00 	ld.w	0[r10],r11
 700110e:	43 c1 0c 00 	ld.b	12[sp],r10
 7001112:	4a b5 ff 00 	andi	255, r10, r10
 7001116:	4c 51       	shl	12, r10
 7001118:	83 c5 08 00 	ld.h	8[sp],r12
 700111c:	8c b5 ff ff 	andi	65535, r12, r12
 7001120:	4c 05       	add	r12, r10
 7001122:	4a 05       	add	r10, r10
 7001124:	6a 05       	add	r10, r11
 7001126:	43 c5 06 00 	ld.h	6[sp],r10
 700112a:	4a b5 ff ff 	andi	65535, r10, r10
 700112e:	83 cd 18 00 	ld.w	24[sp],r12
 7001132:	4c 05       	add	r12, r10
 7001134:	4a c1 00 00 	ld.b	0[r10],r10
 7001138:	58 51       	shl	24, r10
 700113a:	8a 01       	mov	r10, r12
 700113c:	98 5d       	sar	24, r12
 700113e:	43 c5 00 00 	ld.h	0[sp],r10
 7001142:	4a b5 ff ff 	andi	65535, r10, r10
 7001146:	4e 51       	shl	14, r10
 7001148:	8c a5 00 07 	addi	1792, r12, r12
 700114c:	4c 31       	or	r12, r10
 700114e:	4a b5 ff ff 	andi	65535, r10, r10
 7001152:	4b d5 00 00 	st.h	r10, 0[r11]
 7001156:	43 c5 10 00 	ld.h	16[sp],r10
 700115a:	6a b5 ff ff 	andi	65535, r10, r11
 700115e:	40 a1 3f 00 	movea	63, r0, r10
 7001162:	6a 0d       	cmp	r10, r11
 7001164:	4b 49       	setf	h, r10
 7001166:	4a b5 ff 00 	andi	255, r10, r10
 700116a:	63 c5 10 00 	ld.h	16[sp],r11
 700116e:	61 45       	add	1, r11
 7001170:	63 d5 10 00 	st.h	r11, 16[sp]
 7001174:	40 0d       	cmp	r0, r10
 7001176:	18 84       	be	700118e <_vbPrint+0x14a>
 7001178:	43 c5 0a 00 	ld.h	10[sp],r10
 700117c:	43 d5 10 00 	st.h	r10, 16[sp]
 7001180:	43 c5 14 00 	ld.h	20[sp],r10
 7001184:	41 45       	add	1, r10
 7001186:	43 d5 14 00 	st.h	r10, 20[sp]
 700118a:	04 8a       	br	700118e <_vbPrint+0x14a>
 700118c:	00 9a       	nop	
 700118e:	43 c5 06 00 	ld.h	6[sp],r10
 7001192:	41 45       	add	1, r10
 7001194:	43 d5 06 00 	st.h	r10, 6[sp]
 7001198:	43 c5 06 00 	ld.h	6[sp],r10
 700119c:	4a b5 ff ff 	andi	65535, r10, r10
 70011a0:	63 cd 18 00 	ld.w	24[sp],r11
 70011a4:	4b 05       	add	r11, r10
 70011a6:	4a c1 00 00 	ld.b	0[r10],r10
 70011aa:	58 51       	shl	24, r10
 70011ac:	58 5d       	sar	24, r10
 70011ae:	40 0d       	cmp	r0, r10
 70011b0:	06 84       	be	70011b6 <_vbPrint+0x172>
 70011b2:	ff ab c6 fe 	jr	7001078 <_vbPrint+0x34>
 70011b6:	6c 44       	add	12, sp
 70011b8:	1f 18       	jmp	[lp]
	...

070011bc <_vbSetObject>:
 70011bc:	78 44       	add	-8, sp
 70011be:	e6 01       	mov	r6, r15
 70011c0:	c7 01       	mov	r7, r14
 70011c2:	a8 01       	mov	r8, r13
 70011c4:	89 01       	mov	r9, r12
 70011c6:	63 cd 18 00 	ld.w	24[sp],r11
 70011ca:	43 cd 1c 00 	ld.w	28[sp],r10
 70011ce:	e3 d5 08 00 	st.h	r15, 8[sp]
 70011d2:	c3 d1 0c 00 	st.b	r14, 12[sp]
 70011d6:	a3 d5 10 00 	st.h	r13, 16[sp]
 70011da:	83 d5 14 00 	st.h	r12, 20[sp]
 70011de:	63 d5 04 00 	st.h	r11, 4[sp]
 70011e2:	43 d5 00 00 	st.h	r10, 0[sp]
 70011e6:	43 c5 08 00 	ld.h	8[sp],r10
 70011ea:	42 51       	shl	2, r10
 70011ec:	43 d5 08 00 	st.h	r10, 8[sp]
 70011f0:	40 bd 00 07 	movhi	1792, r0, r10
 70011f4:	4a a1 54 69 	movea	26964, r10, r10
 70011f8:	6a cd 00 00 	ld.w	0[r10],r11
 70011fc:	43 c5 08 00 	ld.h	8[sp],r10
 7001200:	4a b5 ff ff 	andi	65535, r10, r10
 7001204:	4a 05       	add	r10, r10
 7001206:	4b 05       	add	r11, r10
 7001208:	63 c5 10 00 	ld.h	16[sp],r11
 700120c:	6b b5 ff ff 	andi	65535, r11, r11
 7001210:	6a d5 00 00 	st.h	r11, 0[r10]
 7001214:	40 bd 00 07 	movhi	1792, r0, r10
 7001218:	4a a1 54 69 	movea	26964, r10, r10
 700121c:	6a cd 00 00 	ld.w	0[r10],r11
 7001220:	43 c5 08 00 	ld.h	8[sp],r10
 7001224:	4a b5 ff ff 	andi	65535, r10, r10
 7001228:	41 45       	add	1, r10
 700122a:	4a 05       	add	r10, r10
 700122c:	6a 05       	add	r10, r11
 700122e:	43 c1 0c 00 	ld.b	12[sp],r10
 7001232:	4a b5 ff 00 	andi	255, r10, r10
 7001236:	48 51       	shl	8, r10
 7001238:	8a 01       	mov	r10, r12
 700123a:	43 c5 14 00 	ld.h	20[sp],r10
 700123e:	4c 31       	or	r12, r10
 7001240:	4a b5 ff ff 	andi	65535, r10, r10
 7001244:	4b d5 00 00 	st.h	r10, 0[r11]
 7001248:	40 bd 00 07 	movhi	1792, r0, r10
 700124c:	4a a1 54 69 	movea	26964, r10, r10
 7001250:	6a cd 00 00 	ld.w	0[r10],r11
 7001254:	43 c5 08 00 	ld.h	8[sp],r10
 7001258:	4a b5 ff ff 	andi	65535, r10, r10
 700125c:	42 45       	add	2, r10
 700125e:	4a 05       	add	r10, r10
 7001260:	4b 05       	add	r11, r10
 7001262:	63 c5 04 00 	ld.h	4[sp],r11
 7001266:	6b b5 ff ff 	andi	65535, r11, r11
 700126a:	6a d5 00 00 	st.h	r11, 0[r10]
 700126e:	40 bd 00 07 	movhi	1792, r0, r10
 7001272:	4a a1 54 69 	movea	26964, r10, r10
 7001276:	6a cd 00 00 	ld.w	0[r10],r11
 700127a:	43 c5 08 00 	ld.h	8[sp],r10
 700127e:	4a b5 ff ff 	andi	65535, r10, r10
 7001282:	43 45       	add	3, r10
 7001284:	4a 05       	add	r10, r10
 7001286:	6a 05       	add	r10, r11
 7001288:	43 c1 0c 00 	ld.b	12[sp],r10
 700128c:	4a b5 ff 00 	andi	255, r10, r10
 7001290:	4a b5 3c 00 	andi	60, r10, r10
 7001294:	8a 01       	mov	r10, r12
 7001296:	8a 51       	shl	10, r12
 7001298:	43 c5 00 00 	ld.h	0[sp],r10
 700129c:	4a b5 ff 07 	andi	2047, r10, r10
 70012a0:	4c 31       	or	r12, r10
 70012a2:	4a b5 ff ff 	andi	65535, r10, r10
 70012a6:	4b d5 00 00 	st.h	r10, 0[r11]
 70012aa:	68 44       	add	8, sp
 70012ac:	1f 18       	jmp	[lp]
	...

070012b0 <_randseed>:
 70012b0:	70 44       	add	-16, sp
 70012b2:	41 41       	mov	1, r10
 70012b4:	43 dd 00 00 	st.w	r10, 0[sp]
 70012b8:	03 dc 08 00 	st.w	r0, 8[sp]
 70012bc:	41 41       	mov	1, r10
 70012be:	43 dd 0c 00 	st.w	r10, 12[sp]
 70012c2:	72 8a       	br	7001334 <_randseed+0x84>
 70012c4:	40 bd 00 05 	movhi	1280, r0, r10
 70012c8:	4a a1 00 00 	movea	0, r10, r10
 70012cc:	4a cd 00 00 	ld.w	0[r10],r10
 70012d0:	4a a5 30 00 	addi	48, r10, r10
 70012d4:	4a c5 00 00 	ld.h	0[r10],r10
 70012d8:	4a b5 ff ff 	andi	65535, r10, r10
 70012dc:	43 dd 04 00 	st.w	r10, 4[sp]
 70012e0:	43 cd 00 00 	ld.w	0[sp],r10
 70012e4:	40 0d       	cmp	r0, r10
 70012e6:	08 94       	bne	70012ee <_randseed+0x3e>
 70012e8:	41 41       	mov	1, r10
 70012ea:	43 dd 00 00 	st.w	r10, 0[sp]
 70012ee:	63 cd 04 00 	ld.w	4[sp],r11
 70012f2:	43 cd 0c 00 	ld.w	12[sp],r10
 70012f6:	6a 21       	mul	r10, r11
 70012f8:	83 cd 0c 00 	ld.w	12[sp],r12
 70012fc:	43 cd 00 00 	ld.w	0[sp],r10
 7001300:	8a 25       	div	r10, r12
 7001302:	5e 01       	mov	r30, r10
 7001304:	4b 05       	add	r11, r10
 7001306:	63 cd 00 00 	ld.w	0[sp],r11
 700130a:	4b 05       	add	r11, r10
 700130c:	43 dd 00 00 	st.w	r10, 0[sp]
 7001310:	63 cd 04 00 	ld.w	4[sp],r11
 7001314:	43 cd 08 00 	ld.w	8[sp],r10
 7001318:	6a 0d       	cmp	r10, r11
 700131a:	0e 94       	bne	7001328 <_randseed+0x78>
 700131c:	43 cd 0c 00 	ld.w	12[sp],r10
 7001320:	41 45       	add	1, r10
 7001322:	43 dd 0c 00 	st.w	r10, 12[sp]
 7001326:	06 8a       	br	700132c <_randseed+0x7c>
 7001328:	03 dc 0c 00 	st.w	r0, 12[sp]
 700132c:	43 cd 04 00 	ld.w	4[sp],r10
 7001330:	43 dd 08 00 	st.w	r10, 8[sp]
 7001334:	63 cd 0c 00 	ld.w	12[sp],r11
 7001338:	40 a1 2f 75 	movea	29999, r0, r10
 700133c:	6a 0d       	cmp	r10, r11
 700133e:	86 8f       	ble	70012c4 <_randseed+0x14>
 7001340:	43 cd 00 00 	ld.w	0[sp],r10
 7001344:	63 a4 10 00 	addi	16, sp, sp
 7001348:	1f 18       	jmp	[lp]
	...

0700134c <_randnum>:
 700134c:	c3 dc 00 00 	st.w	r6, 0[sp]
 7001350:	e3 dc 04 00 	st.w	r7, 4[sp]
 7001354:	63 cd 00 00 	ld.w	0[sp],r11
 7001358:	43 cd 04 00 	ld.w	4[sp],r10
 700135c:	6a 25       	div	r10, r11
 700135e:	5e 01       	mov	r30, r10
 7001360:	1f 18       	jmp	[lp]
	...

07001364 <_vbSetWorld>:
 7001364:	63 a4 e4 ff 	addi	-28, sp, sp
 7001368:	66 02       	mov	r6, r19
 700136a:	47 02       	mov	r7, r18
 700136c:	28 02       	mov	r8, r17
 700136e:	09 02       	mov	r9, r16
 7001370:	e3 cd 2c 00 	ld.w	44[sp],r15
 7001374:	c3 cd 30 00 	ld.w	48[sp],r14
 7001378:	a3 cd 34 00 	ld.w	52[sp],r13
 700137c:	83 cd 38 00 	ld.w	56[sp],r12
 7001380:	63 cd 3c 00 	ld.w	60[sp],r11
 7001384:	43 cd 40 00 	ld.w	64[sp],r10
 7001388:	63 d6 1c 00 	st.h	r19, 28[sp]
 700138c:	43 d6 20 00 	st.h	r18, 32[sp]
 7001390:	23 d6 24 00 	st.h	r17, 36[sp]
 7001394:	03 d6 28 00 	st.h	r16, 40[sp]
 7001398:	e3 d5 14 00 	st.h	r15, 20[sp]
 700139c:	c3 d5 10 00 	st.h	r14, 16[sp]
 70013a0:	a3 d5 0c 00 	st.h	r13, 12[sp]
 70013a4:	83 d5 08 00 	st.h	r12, 8[sp]
 70013a8:	63 d5 04 00 	st.h	r11, 4[sp]
 70013ac:	43 d5 00 00 	st.h	r10, 0[sp]
 70013b0:	43 c5 1c 00 	ld.h	28[sp],r10
 70013b4:	44 51       	shl	4, r10
 70013b6:	43 d5 1a 00 	st.h	r10, 26[sp]
 70013ba:	40 bd 00 07 	movhi	1792, r0, r10
 70013be:	4a a1 4c 69 	movea	26956, r10, r10
 70013c2:	6a cd 00 00 	ld.w	0[r10],r11
 70013c6:	43 c5 1a 00 	ld.h	26[sp],r10
 70013ca:	4a b5 ff ff 	andi	65535, r10, r10
 70013ce:	4a 05       	add	r10, r10
 70013d0:	4b 05       	add	r11, r10
 70013d2:	63 c5 20 00 	ld.h	32[sp],r11
 70013d6:	6a d5 00 00 	st.h	r11, 0[r10]
 70013da:	43 c5 1a 00 	ld.h	26[sp],r10
 70013de:	41 45       	add	1, r10
 70013e0:	43 d5 1a 00 	st.h	r10, 26[sp]
 70013e4:	40 bd 00 07 	movhi	1792, r0, r10
 70013e8:	4a a1 4c 69 	movea	26956, r10, r10
 70013ec:	6a cd 00 00 	ld.w	0[r10],r11
 70013f0:	43 c5 1a 00 	ld.h	26[sp],r10
 70013f4:	4a b5 ff ff 	andi	65535, r10, r10
 70013f8:	4a 05       	add	r10, r10
 70013fa:	4b 05       	add	r11, r10
 70013fc:	63 c5 24 00 	ld.h	36[sp],r11
 7001400:	6a d5 00 00 	st.h	r11, 0[r10]
 7001404:	43 c5 1a 00 	ld.h	26[sp],r10
 7001408:	41 45       	add	1, r10
 700140a:	43 d5 1a 00 	st.h	r10, 26[sp]
 700140e:	40 bd 00 07 	movhi	1792, r0, r10
 7001412:	4a a1 4c 69 	movea	26956, r10, r10
 7001416:	6a cd 00 00 	ld.w	0[r10],r11
 700141a:	43 c5 1a 00 	ld.h	26[sp],r10
 700141e:	4a b5 ff ff 	andi	65535, r10, r10
 7001422:	4a 05       	add	r10, r10
 7001424:	4b 05       	add	r11, r10
 7001426:	63 c5 28 00 	ld.h	40[sp],r11
 700142a:	6b b5 ff ff 	andi	65535, r11, r11
 700142e:	6a d5 00 00 	st.h	r11, 0[r10]
 7001432:	43 c5 1a 00 	ld.h	26[sp],r10
 7001436:	41 45       	add	1, r10
 7001438:	43 d5 1a 00 	st.h	r10, 26[sp]
 700143c:	40 bd 00 07 	movhi	1792, r0, r10
 7001440:	4a a1 4c 69 	movea	26956, r10, r10
 7001444:	6a cd 00 00 	ld.w	0[r10],r11
 7001448:	43 c5 1a 00 	ld.h	26[sp],r10
 700144c:	4a b5 ff ff 	andi	65535, r10, r10
 7001450:	4a 05       	add	r10, r10
 7001452:	4b 05       	add	r11, r10
 7001454:	63 c5 14 00 	ld.h	20[sp],r11
 7001458:	6a d5 00 00 	st.h	r11, 0[r10]
 700145c:	43 c5 1a 00 	ld.h	26[sp],r10
 7001460:	41 45       	add	1, r10
 7001462:	43 d5 1a 00 	st.h	r10, 26[sp]
 7001466:	40 bd 00 07 	movhi	1792, r0, r10
 700146a:	4a a1 4c 69 	movea	26956, r10, r10
 700146e:	6a cd 00 00 	ld.w	0[r10],r11
 7001472:	43 c5 1a 00 	ld.h	26[sp],r10
 7001476:	4a b5 ff ff 	andi	65535, r10, r10
 700147a:	4a 05       	add	r10, r10
 700147c:	4b 05       	add	r11, r10
 700147e:	63 c5 10 00 	ld.h	16[sp],r11
 7001482:	6a d5 00 00 	st.h	r11, 0[r10]
 7001486:	43 c5 1a 00 	ld.h	26[sp],r10
 700148a:	41 45       	add	1, r10
 700148c:	43 d5 1a 00 	st.h	r10, 26[sp]
 7001490:	40 bd 00 07 	movhi	1792, r0, r10
 7001494:	4a a1 4c 69 	movea	26956, r10, r10
 7001498:	6a cd 00 00 	ld.w	0[r10],r11
 700149c:	43 c5 1a 00 	ld.h	26[sp],r10
 70014a0:	4a b5 ff ff 	andi	65535, r10, r10
 70014a4:	4a 05       	add	r10, r10
 70014a6:	4b 05       	add	r11, r10
 70014a8:	63 c5 0c 00 	ld.h	12[sp],r11
 70014ac:	6b b5 ff ff 	andi	65535, r11, r11
 70014b0:	6a d5 00 00 	st.h	r11, 0[r10]
 70014b4:	43 c5 1a 00 	ld.h	26[sp],r10
 70014b8:	41 45       	add	1, r10
 70014ba:	43 d5 1a 00 	st.h	r10, 26[sp]
 70014be:	40 bd 00 07 	movhi	1792, r0, r10
 70014c2:	4a a1 4c 69 	movea	26956, r10, r10
 70014c6:	6a cd 00 00 	ld.w	0[r10],r11
 70014ca:	43 c5 1a 00 	ld.h	26[sp],r10
 70014ce:	4a b5 ff ff 	andi	65535, r10, r10
 70014d2:	4a 05       	add	r10, r10
 70014d4:	4b 05       	add	r11, r10
 70014d6:	63 c5 08 00 	ld.h	8[sp],r11
 70014da:	6a d5 00 00 	st.h	r11, 0[r10]
 70014de:	43 c5 1a 00 	ld.h	26[sp],r10
 70014e2:	41 45       	add	1, r10
 70014e4:	43 d5 1a 00 	st.h	r10, 26[sp]
 70014e8:	40 bd 00 07 	movhi	1792, r0, r10
 70014ec:	4a a1 4c 69 	movea	26956, r10, r10
 70014f0:	6a cd 00 00 	ld.w	0[r10],r11
 70014f4:	43 c5 1a 00 	ld.h	26[sp],r10
 70014f8:	4a b5 ff ff 	andi	65535, r10, r10
 70014fc:	4a 05       	add	r10, r10
 70014fe:	4b 05       	add	r11, r10
 7001500:	63 c5 04 00 	ld.h	4[sp],r11
 7001504:	6a d5 00 00 	st.h	r11, 0[r10]
 7001508:	43 c5 1a 00 	ld.h	26[sp],r10
 700150c:	41 45       	add	1, r10
 700150e:	43 d5 1a 00 	st.h	r10, 26[sp]
 7001512:	40 bd 00 07 	movhi	1792, r0, r10
 7001516:	4a a1 4c 69 	movea	26956, r10, r10
 700151a:	6a cd 00 00 	ld.w	0[r10],r11
 700151e:	43 c5 1a 00 	ld.h	26[sp],r10
 7001522:	4a b5 ff ff 	andi	65535, r10, r10
 7001526:	4a 05       	add	r10, r10
 7001528:	4b 05       	add	r11, r10
 700152a:	63 c5 00 00 	ld.h	0[sp],r11
 700152e:	6a d5 00 00 	st.h	r11, 0[r10]
 7001532:	63 a4 1c 00 	addi	28, sp, sp
 7001536:	1f 18       	jmp	[lp]

07001538 <_timer_enable>:
 7001538:	c3 dc 00 00 	st.w	r6, 0[sp]
 700153c:	43 cd 00 00 	ld.w	0[sp],r10
 7001540:	40 0d       	cmp	r0, r10
 7001542:	28 84       	be	700156a <_timer_enable+0x32>
 7001544:	40 bd 00 05 	movhi	1280, r0, r10
 7001548:	4a a1 5c 00 	movea	92, r10, r10
 700154c:	4a c1 00 00 	ld.b	0[r10],r10
 7001550:	4a b5 ff 00 	andi	255, r10, r10
 7001554:	4a b1 01 00 	ori	1, r10, r10
 7001558:	6a b5 ff 00 	andi	255, r10, r11
 700155c:	40 bd 00 05 	movhi	1280, r0, r10
 7001560:	4a a1 5c 00 	movea	92, r10, r10
 7001564:	6a d1 00 00 	st.b	r11, 0[r10]
 7001568:	22 8a       	br	700158a <_timer_enable+0x52>
 700156a:	40 bd 00 05 	movhi	1280, r0, r10
 700156e:	4a a1 5c 00 	movea	92, r10, r10
 7001572:	4a c1 00 00 	ld.b	0[r10],r10
 7001576:	4a b5 ff 00 	andi	255, r10, r10
 700157a:	4a b5 fe 00 	andi	254, r10, r10
 700157e:	60 bd 00 05 	movhi	1280, r0, r11
 7001582:	6b a1 5c 00 	movea	92, r11, r11
 7001586:	4b d1 00 00 	st.b	r10, 0[r11]
 700158a:	40 bd 00 07 	movhi	1792, r0, r10
 700158e:	4a a1 08 6a 	movea	27144, r10, r10
 7001592:	4a cd 00 00 	ld.w	0[r10],r10
 7001596:	4a a5 20 00 	addi	32, r10, r10
 700159a:	60 bd 00 05 	movhi	1280, r0, r11
 700159e:	6b a1 5c 00 	movea	92, r11, r11
 70015a2:	6b c1 00 00 	ld.b	0[r11],r11
 70015a6:	6b b5 ff 00 	andi	255, r11, r11
 70015aa:	6a d1 00 00 	st.b	r11, 0[r10]
 70015ae:	1f 18       	jmp	[lp]

070015b0 <_timer_get>:
 70015b0:	40 bd 00 07 	movhi	1792, r0, r10
 70015b4:	4a a1 08 6a 	movea	27144, r10, r10
 70015b8:	4a cd 00 00 	ld.w	0[r10],r10
 70015bc:	4a c1 18 00 	ld.b	24[r10],r10
 70015c0:	6a b5 ff 00 	andi	255, r10, r11
 70015c4:	40 bd 00 07 	movhi	1792, r0, r10
 70015c8:	4a a1 08 6a 	movea	27144, r10, r10
 70015cc:	4a cd 00 00 	ld.w	0[r10],r10
 70015d0:	4a c1 1c 00 	ld.b	28[r10],r10
 70015d4:	4a b5 ff 00 	andi	255, r10, r10
 70015d8:	48 51       	shl	8, r10
 70015da:	4b 31       	or	r11, r10
 70015dc:	4a b5 ff ff 	andi	65535, r10, r10
 70015e0:	1f 18       	jmp	[lp]
	...

070015e4 <_timer_set>:
 70015e4:	46 01       	mov	r6, r10
 70015e6:	43 d5 00 00 	st.h	r10, 0[sp]
 70015ea:	40 bd 00 07 	movhi	1792, r0, r10
 70015ee:	4a a1 08 6a 	movea	27144, r10, r10
 70015f2:	4a cd 00 00 	ld.w	0[r10],r10
 70015f6:	4a a5 18 00 	addi	24, r10, r10
 70015fa:	63 c5 00 00 	ld.h	0[sp],r11
 70015fe:	6b b5 ff 00 	andi	255, r11, r11
 7001602:	6a d1 00 00 	st.b	r11, 0[r10]
 7001606:	40 bd 00 07 	movhi	1792, r0, r10
 700160a:	4a a1 08 6a 	movea	27144, r10, r10
 700160e:	4a cd 00 00 	ld.w	0[r10],r10
 7001612:	4a a5 1c 00 	addi	28, r10, r10
 7001616:	63 c5 00 00 	ld.h	0[sp],r11
 700161a:	6b b5 ff ff 	andi	65535, r11, r11
 700161e:	68 55       	shr	8, r11
 7001620:	6b b5 ff 00 	andi	255, r11, r11
 7001624:	6a d1 00 00 	st.b	r11, 0[r10]
 7001628:	1f 18       	jmp	[lp]
	...

0700162c <_timer_freq>:
 700162c:	c3 dc 00 00 	st.w	r6, 0[sp]
 7001630:	43 cd 00 00 	ld.w	0[sp],r10
 7001634:	40 0d       	cmp	r0, r10
 7001636:	28 84       	be	700165e <_timer_freq+0x32>
 7001638:	40 bd 00 05 	movhi	1280, r0, r10
 700163c:	4a a1 5c 00 	movea	92, r10, r10
 7001640:	4a c1 00 00 	ld.b	0[r10],r10
 7001644:	4a b5 ff 00 	andi	255, r10, r10
 7001648:	4a b1 10 00 	ori	16, r10, r10
 700164c:	6a b5 ff 00 	andi	255, r10, r11
 7001650:	40 bd 00 05 	movhi	1280, r0, r10
 7001654:	4a a1 5c 00 	movea	92, r10, r10
 7001658:	6a d1 00 00 	st.b	r11, 0[r10]
 700165c:	22 8a       	br	700167e <_timer_freq+0x52>
 700165e:	40 bd 00 05 	movhi	1280, r0, r10
 7001662:	4a a1 5c 00 	movea	92, r10, r10
 7001666:	4a c1 00 00 	ld.b	0[r10],r10
 700166a:	4a b5 ff 00 	andi	255, r10, r10
 700166e:	4a b5 ef 00 	andi	239, r10, r10
 7001672:	60 bd 00 05 	movhi	1280, r0, r11
 7001676:	6b a1 5c 00 	movea	92, r11, r11
 700167a:	4b d1 00 00 	st.b	r10, 0[r11]
 700167e:	40 bd 00 07 	movhi	1792, r0, r10
 7001682:	4a a1 08 6a 	movea	27144, r10, r10
 7001686:	4a cd 00 00 	ld.w	0[r10],r10
 700168a:	4a a5 20 00 	addi	32, r10, r10
 700168e:	60 bd 00 05 	movhi	1280, r0, r11
 7001692:	6b a1 5c 00 	movea	92, r11, r11
 7001696:	6b c1 00 00 	ld.b	0[r11],r11
 700169a:	6b b5 ff 00 	andi	255, r11, r11
 700169e:	6a d1 00 00 	st.b	r11, 0[r10]
 70016a2:	1f 18       	jmp	[lp]

070016a4 <_timer_int>:
 70016a4:	c3 dc 00 00 	st.w	r6, 0[sp]
 70016a8:	43 cd 00 00 	ld.w	0[sp],r10
 70016ac:	40 0d       	cmp	r0, r10
 70016ae:	28 84       	be	70016d6 <_timer_int+0x32>
 70016b0:	40 bd 00 05 	movhi	1280, r0, r10
 70016b4:	4a a1 5c 00 	movea	92, r10, r10
 70016b8:	4a c1 00 00 	ld.b	0[r10],r10
 70016bc:	4a b5 ff 00 	andi	255, r10, r10
 70016c0:	4a b1 08 00 	ori	8, r10, r10
 70016c4:	6a b5 ff 00 	andi	255, r10, r11
 70016c8:	40 bd 00 05 	movhi	1280, r0, r10
 70016cc:	4a a1 5c 00 	movea	92, r10, r10
 70016d0:	6a d1 00 00 	st.b	r11, 0[r10]
 70016d4:	22 8a       	br	70016f6 <_timer_int+0x52>
 70016d6:	40 bd 00 05 	movhi	1280, r0, r10
 70016da:	4a a1 5c 00 	movea	92, r10, r10
 70016de:	4a c1 00 00 	ld.b	0[r10],r10
 70016e2:	4a b5 ff 00 	andi	255, r10, r10
 70016e6:	4a b5 f7 00 	andi	247, r10, r10
 70016ea:	60 bd 00 05 	movhi	1280, r0, r11
 70016ee:	6b a1 5c 00 	movea	92, r11, r11
 70016f2:	4b d1 00 00 	st.b	r10, 0[r11]
 70016f6:	40 bd 00 07 	movhi	1792, r0, r10
 70016fa:	4a a1 08 6a 	movea	27144, r10, r10
 70016fe:	4a cd 00 00 	ld.w	0[r10],r10
 7001702:	4a a5 20 00 	addi	32, r10, r10
 7001706:	60 bd 00 05 	movhi	1280, r0, r11
 700170a:	6b a1 5c 00 	movea	92, r11, r11
 700170e:	6b c1 00 00 	ld.b	0[r11],r11
 7001712:	6b b5 ff 00 	andi	255, r11, r11
 7001716:	6a d1 00 00 	st.b	r11, 0[r10]
 700171a:	1f 18       	jmp	[lp]

0700171c <_timer_getstat>:
 700171c:	40 bd 00 07 	movhi	1792, r0, r10
 7001720:	4a a1 08 6a 	movea	27144, r10, r10
 7001724:	4a cd 00 00 	ld.w	0[r10],r10
 7001728:	4a c1 20 00 	ld.b	32[r10],r10
 700172c:	4a b5 ff 00 	andi	255, r10, r10
 7001730:	4a b5 02 00 	andi	2, r10, r10
 7001734:	40 0d       	cmp	r0, r10
 7001736:	4a 49       	setf	nz, r10
 7001738:	1f 18       	jmp	[lp]
	...

0700173c <_timer_clearstat>:
 700173c:	40 bd 00 07 	movhi	1792, r0, r10
 7001740:	4a a1 08 6a 	movea	27144, r10, r10
 7001744:	4a cd 00 00 	ld.w	0[r10],r10
 7001748:	4a a5 20 00 	addi	32, r10, r10
 700174c:	60 bd 00 05 	movhi	1280, r0, r11
 7001750:	6b a1 5c 00 	movea	92, r11, r11
 7001754:	6b c1 00 00 	ld.b	0[r11],r11
 7001758:	6b b5 ff 00 	andi	255, r11, r11
 700175c:	6b b1 04 00 	ori	4, r11, r11
 7001760:	6b b5 ff 00 	andi	255, r11, r11
 7001764:	6a d1 00 00 	st.b	r11, 0[r10]
 7001768:	1f 18       	jmp	[lp]
	...

0700176c <_g3d_copyVector3d>:
 700176c:	c3 dc 00 00 	st.w	r6, 0[sp]
 7001770:	e3 dc 04 00 	st.w	r7, 4[sp]
 7001774:	43 cd 00 00 	ld.w	0[sp],r10
 7001778:	63 cd 04 00 	ld.w	4[sp],r11
 700177c:	ca cc 00 00 	ld.w	0[r10],r6
 7001780:	cb dc 00 00 	st.w	r6, 0[r11]
 7001784:	ca cc 04 00 	ld.w	4[r10],r6
 7001788:	cb dc 04 00 	st.w	r6, 4[r11]
 700178c:	ca cc 08 00 	ld.w	8[r10],r6
 7001790:	cb dc 08 00 	st.w	r6, 8[r11]
 7001794:	ca cc 0c 00 	ld.w	12[r10],r6
 7001798:	cb dc 0c 00 	st.w	r6, 12[r11]
 700179c:	ca cc 10 00 	ld.w	16[r10],r6
 70017a0:	cb dc 10 00 	st.w	r6, 16[r11]
 70017a4:	1f 18       	jmp	[lp]
	...

070017a8 <_g3d_scale>:
 70017a8:	63 a4 ec ff 	addi	-20, sp, sp
 70017ac:	e3 df 10 00 	st.w	lp, 16[sp]
 70017b0:	c3 dc 14 00 	st.w	r6, 20[sp]
 70017b4:	e3 dc 18 00 	st.w	r7, 24[sp]
 70017b8:	03 dd 1c 00 	st.w	r8, 28[sp]
 70017bc:	43 cd 14 00 	ld.w	20[sp],r10
 70017c0:	4a cd 00 00 	ld.w	0[r10],r10
 70017c4:	41 4d       	cmp	1, r10
 70017c6:	34 94       	bne	70017fa <_g3d_scale+0x52>
 70017c8:	43 cd 14 00 	ld.w	20[sp],r10
 70017cc:	4a cd 04 00 	ld.w	4[r10],r10
 70017d0:	41 4d       	cmp	1, r10
 70017d2:	28 94       	bne	70017fa <_g3d_scale+0x52>
 70017d4:	43 cd 14 00 	ld.w	20[sp],r10
 70017d8:	4a cd 08 00 	ld.w	8[r10],r10
 70017dc:	41 4d       	cmp	1, r10
 70017de:	1c 94       	bne	70017fa <_g3d_scale+0x52>
 70017e0:	c3 cc 18 00 	ld.w	24[sp],r6
 70017e4:	e3 cc 1c 00 	ld.w	28[sp],r7
 70017e8:	40 bd 00 07 	movhi	1792, r0, r10
 70017ec:	4a a1 6c 17 	movea	5996, r10, r10
 70017f0:	00 ac 04 00 	jal	70017f4 <_g3d_scale+0x4c>
 70017f4:	e4 47       	add	4, lp
 70017f6:	0a 18       	jmp	[r10]
 70017f8:	60 8a       	br	7001858 <_g3d_scale+0xb0>
 70017fa:	43 cd 14 00 	ld.w	20[sp],r10
 70017fe:	63 cd 18 00 	ld.w	24[sp],r11
 7001802:	83 cd 1c 00 	ld.w	28[sp],r12
 7001806:	a3 41       	mov	3, r13
 7001808:	c2 41       	mov	2, r14
 700180a:	aa cc 00 00 	ld.w	0[r10],r5
 700180e:	cb cc 00 00 	ld.w	0[r11],r6
 7001812:	c5 20       	mul	r5, r6
 7001814:	e6 00       	mov	r6, r7
 7001816:	ee 1c       	sar	r14, r7
 7001818:	e7 b4 01 00 	andi	1, r7, r7
 700181c:	cd 1c       	sar	r13, r6
 700181e:	e6 04       	add	r6, r7
 7001820:	ec dc 00 00 	st.w	r7, 0[r12]
 7001824:	aa cc 04 00 	ld.w	4[r10],r5
 7001828:	cb cc 04 00 	ld.w	4[r11],r6
 700182c:	c5 20       	mul	r5, r6
 700182e:	e6 00       	mov	r6, r7
 7001830:	ee 1c       	sar	r14, r7
 7001832:	e7 b4 01 00 	andi	1, r7, r7
 7001836:	cd 1c       	sar	r13, r6
 7001838:	e6 04       	add	r6, r7
 700183a:	ec dc 04 00 	st.w	r7, 4[r12]
 700183e:	aa cc 08 00 	ld.w	8[r10],r5
 7001842:	cb cc 08 00 	ld.w	8[r11],r6
 7001846:	c5 20       	mul	r5, r6
 7001848:	e6 00       	mov	r6, r7
 700184a:	ee 1c       	sar	r14, r7
 700184c:	e7 b4 01 00 	andi	1, r7, r7
 7001850:	cd 1c       	sar	r13, r6
 7001852:	e6 04       	add	r6, r7
 7001854:	ec dc 08 00 	st.w	r7, 8[r12]
 7001858:	e3 cf 10 00 	ld.w	16[sp],lp
 700185c:	63 a4 14 00 	addi	20, sp, sp
 7001860:	1f 18       	jmp	[lp]
	...

07001864 <_g3d_rotateXAxis>:
 7001864:	c3 dc 00 00 	st.w	r6, 0[sp]
 7001868:	e3 dc 04 00 	st.w	r7, 4[sp]
 700186c:	03 dd 08 00 	st.w	r8, 8[sp]
 7001870:	43 cd 04 00 	ld.w	4[sp],r10
 7001874:	6a cd 00 00 	ld.w	0[r10],r11
 7001878:	43 cd 08 00 	ld.w	8[sp],r10
 700187c:	6a dd 00 00 	st.w	r11, 0[r10]
 7001880:	63 cd 00 00 	ld.w	0[sp],r11
 7001884:	43 cd 00 00 	ld.w	0[sp],r10
 7001888:	c3 cd 04 00 	ld.w	4[sp],r14
 700188c:	e3 cd 04 00 	ld.w	4[sp],r15
 7001890:	03 ce 08 00 	ld.w	8[sp],r16
 7001894:	80 bd 00 07 	movhi	1792, r0, r12
 7001898:	8c a1 2c 6a 	movea	27180, r12, r12
 700189c:	62 51       	shl	2, r11
 700189e:	2c 02       	mov	r12, r17
 70018a0:	2b 06       	add	r11, r17
 70018a2:	60 bd 00 07 	movhi	1792, r0, r11
 70018a6:	6b a1 cc 6f 	movea	28620, r11, r11
 70018aa:	42 51       	shl	2, r10
 70018ac:	4b 02       	mov	r11, r18
 70018ae:	4a 06       	add	r10, r18
 70018b0:	ee cc 04 00 	ld.w	4[r14],r7
 70018b4:	0f cd 08 00 	ld.w	8[r15],r8
 70018b8:	51 cd 00 00 	ld.w	0[r17],r10
 70018bc:	72 cd 00 00 	ld.w	0[r18],r11
 70018c0:	88 01       	mov	r8, r12
 70018c2:	8a 21       	mul	r10, r12
 70018c4:	83 5d       	sar	3, r12
 70018c6:	a7 01       	mov	r7, r13
 70018c8:	ab 21       	mul	r11, r13
 70018ca:	a3 5d       	sar	3, r13
 70018cc:	ac 05       	add	r12, r13
 70018ce:	b0 dd 08 00 	st.w	r13, 8[r16]
 70018d2:	6b 3d       	not	r11, r11
 70018d4:	6b a5 01 00 	addi	1, r11, r11
 70018d8:	88 01       	mov	r8, r12
 70018da:	8b 21       	mul	r11, r12
 70018dc:	83 5d       	sar	3, r12
 70018de:	aa 01       	mov	r10, r13
 70018e0:	a7 21       	mul	r7, r13
 70018e2:	a3 5d       	sar	3, r13
 70018e4:	ac 05       	add	r12, r13
 70018e6:	b0 dd 04 00 	st.w	r13, 4[r16]
 70018ea:	1f 18       	jmp	[lp]

070018ec <_g3d_rotateYAxis>:
 70018ec:	c3 dc 00 00 	st.w	r6, 0[sp]
 70018f0:	e3 dc 04 00 	st.w	r7, 4[sp]
 70018f4:	03 dd 08 00 	st.w	r8, 8[sp]
 70018f8:	43 cd 04 00 	ld.w	4[sp],r10
 70018fc:	6a cd 04 00 	ld.w	4[r10],r11
 7001900:	43 cd 08 00 	ld.w	8[sp],r10
 7001904:	6a dd 04 00 	st.w	r11, 4[r10]
 7001908:	63 cd 00 00 	ld.w	0[sp],r11
 700190c:	43 cd 00 00 	ld.w	0[sp],r10
 7001910:	c3 cd 04 00 	ld.w	4[sp],r14
 7001914:	e3 cd 04 00 	ld.w	4[sp],r15
 7001918:	03 ce 08 00 	ld.w	8[sp],r16
 700191c:	80 bd 00 07 	movhi	1792, r0, r12
 7001920:	8c a1 2c 6a 	movea	27180, r12, r12
 7001924:	62 51       	shl	2, r11
 7001926:	2c 02       	mov	r12, r17
 7001928:	2b 06       	add	r11, r17
 700192a:	60 bd 00 07 	movhi	1792, r0, r11
 700192e:	6b a1 cc 6f 	movea	28620, r11, r11
 7001932:	42 51       	shl	2, r10
 7001934:	4b 02       	mov	r11, r18
 7001936:	4a 06       	add	r10, r18
 7001938:	ee cc 08 00 	ld.w	8[r14],r7
 700193c:	0f cd 00 00 	ld.w	0[r15],r8
 7001940:	51 cd 00 00 	ld.w	0[r17],r10
 7001944:	72 cd 00 00 	ld.w	0[r18],r11
 7001948:	88 01       	mov	r8, r12
 700194a:	8a 21       	mul	r10, r12
 700194c:	83 5d       	sar	3, r12
 700194e:	a7 01       	mov	r7, r13
 7001950:	ab 21       	mul	r11, r13
 7001952:	a3 5d       	sar	3, r13
 7001954:	ac 05       	add	r12, r13
 7001956:	b0 dd 00 00 	st.w	r13, 0[r16]
 700195a:	6b 3d       	not	r11, r11
 700195c:	6b a5 01 00 	addi	1, r11, r11
 7001960:	88 01       	mov	r8, r12
 7001962:	8b 21       	mul	r11, r12
 7001964:	83 5d       	sar	3, r12
 7001966:	aa 01       	mov	r10, r13
 7001968:	a7 21       	mul	r7, r13
 700196a:	a3 5d       	sar	3, r13
 700196c:	ac 05       	add	r12, r13
 700196e:	b0 dd 08 00 	st.w	r13, 8[r16]
 7001972:	1f 18       	jmp	[lp]

07001974 <_g3d_rotateZAxis>:
 7001974:	c3 dc 00 00 	st.w	r6, 0[sp]
 7001978:	e3 dc 04 00 	st.w	r7, 4[sp]
 700197c:	03 dd 08 00 	st.w	r8, 8[sp]
 7001980:	43 cd 04 00 	ld.w	4[sp],r10
 7001984:	6a cd 08 00 	ld.w	8[r10],r11
 7001988:	43 cd 08 00 	ld.w	8[sp],r10
 700198c:	6a dd 08 00 	st.w	r11, 8[r10]
 7001990:	63 cd 00 00 	ld.w	0[sp],r11
 7001994:	43 cd 00 00 	ld.w	0[sp],r10
 7001998:	c3 cd 04 00 	ld.w	4[sp],r14
 700199c:	e3 cd 04 00 	ld.w	4[sp],r15
 70019a0:	03 ce 08 00 	ld.w	8[sp],r16
 70019a4:	80 bd 00 07 	movhi	1792, r0, r12
 70019a8:	8c a1 2c 6a 	movea	27180, r12, r12
 70019ac:	62 51       	shl	2, r11
 70019ae:	2c 02       	mov	r12, r17
 70019b0:	2b 06       	add	r11, r17
 70019b2:	60 bd 00 07 	movhi	1792, r0, r11
 70019b6:	6b a1 cc 6f 	movea	28620, r11, r11
 70019ba:	42 51       	shl	2, r10
 70019bc:	4b 02       	mov	r11, r18
 70019be:	4a 06       	add	r10, r18
 70019c0:	ee cc 04 00 	ld.w	4[r14],r7
 70019c4:	0f cd 00 00 	ld.w	0[r15],r8
 70019c8:	51 cd 00 00 	ld.w	0[r17],r10
 70019cc:	72 cd 00 00 	ld.w	0[r18],r11
 70019d0:	88 01       	mov	r8, r12
 70019d2:	8a 21       	mul	r10, r12
 70019d4:	83 5d       	sar	3, r12
 70019d6:	a7 01       	mov	r7, r13
 70019d8:	ab 21       	mul	r11, r13
 70019da:	a3 5d       	sar	3, r13
 70019dc:	ac 05       	add	r12, r13
 70019de:	b0 dd 00 00 	st.w	r13, 0[r16]
 70019e2:	6b 3d       	not	r11, r11
 70019e4:	6b a5 01 00 	addi	1, r11, r11
 70019e8:	88 01       	mov	r8, r12
 70019ea:	8b 21       	mul	r11, r12
 70019ec:	83 5d       	sar	3, r12
 70019ee:	aa 01       	mov	r10, r13
 70019f0:	a7 21       	mul	r7, r13
 70019f2:	a3 5d       	sar	3, r13
 70019f4:	ac 05       	add	r12, r13
 70019f6:	b0 dd 04 00 	st.w	r13, 4[r16]
 70019fa:	1f 18       	jmp	[lp]

070019fc <_g3d_rotateAllAxis>:
 70019fc:	63 a4 d8 ff 	addi	-40, sp, sp
 7001a00:	e3 df 24 00 	st.w	lp, 36[sp]
 7001a04:	c3 dc 28 00 	st.w	r6, 40[sp]
 7001a08:	e3 dc 2c 00 	st.w	r7, 44[sp]
 7001a0c:	03 dd 30 00 	st.w	r8, 48[sp]
 7001a10:	23 dd 34 00 	st.w	r9, 52[sp]
 7001a14:	43 cd 28 00 	ld.w	40[sp],r10
 7001a18:	40 0d       	cmp	r0, r10
 7001a1a:	2e 94       	bne	7001a48 <_g3d_rotateAllAxis+0x4c>
 7001a1c:	43 cd 2c 00 	ld.w	44[sp],r10
 7001a20:	40 0d       	cmp	r0, r10
 7001a22:	26 94       	bne	7001a48 <_g3d_rotateAllAxis+0x4c>
 7001a24:	43 cd 30 00 	ld.w	48[sp],r10
 7001a28:	40 0d       	cmp	r0, r10
 7001a2a:	1e 94       	bne	7001a48 <_g3d_rotateAllAxis+0x4c>
 7001a2c:	c3 cc 34 00 	ld.w	52[sp],r6
 7001a30:	e3 cc 38 00 	ld.w	56[sp],r7
 7001a34:	40 bd 00 07 	movhi	1792, r0, r10
 7001a38:	4a a1 6c 17 	movea	5996, r10, r10
 7001a3c:	00 ac 04 00 	jal	7001a40 <_g3d_rotateAllAxis+0x44>
 7001a40:	e4 47       	add	4, lp
 7001a42:	0a 18       	jmp	[r10]
 7001a44:	00 a8 34 01 	jr	7001b78 <_g3d_rotateAllAxis+0x17c>
 7001a48:	43 cd 28 00 	ld.w	40[sp],r10
 7001a4c:	40 0d       	cmp	r0, r10
 7001a4e:	0e 9c       	bge	7001a5c <_g3d_rotateAllAxis+0x60>
 7001a50:	43 cd 28 00 	ld.w	40[sp],r10
 7001a54:	4a a5 67 01 	addi	359, r10, r10
 7001a58:	43 dd 28 00 	st.w	r10, 40[sp]
 7001a5c:	43 cd 2c 00 	ld.w	44[sp],r10
 7001a60:	40 0d       	cmp	r0, r10
 7001a62:	0e 9c       	bge	7001a70 <_g3d_rotateAllAxis+0x74>
 7001a64:	43 cd 2c 00 	ld.w	44[sp],r10
 7001a68:	4a a5 67 01 	addi	359, r10, r10
 7001a6c:	43 dd 2c 00 	st.w	r10, 44[sp]
 7001a70:	43 cd 30 00 	ld.w	48[sp],r10
 7001a74:	40 0d       	cmp	r0, r10
 7001a76:	0e 9c       	bge	7001a84 <_g3d_rotateAllAxis+0x88>
 7001a78:	43 cd 30 00 	ld.w	48[sp],r10
 7001a7c:	4a a5 67 01 	addi	359, r10, r10
 7001a80:	43 dd 30 00 	st.w	r10, 48[sp]
 7001a84:	43 a5 10 00 	addi	16, sp, r10
 7001a88:	c3 cc 34 00 	ld.w	52[sp],r6
 7001a8c:	ea 00       	mov	r10, r7
 7001a8e:	40 bd 00 07 	movhi	1792, r0, r10
 7001a92:	4a a1 6c 17 	movea	5996, r10, r10
 7001a96:	00 ac 04 00 	jal	7001a9a <_g3d_rotateAllAxis+0x9e>
 7001a9a:	e4 47       	add	4, lp
 7001a9c:	0a 18       	jmp	[r10]
 7001a9e:	43 cd 2c 00 	ld.w	44[sp],r10
 7001aa2:	40 0d       	cmp	r0, r10
 7001aa4:	3a 84       	be	7001ade <_g3d_rotateAllAxis+0xe2>
 7001aa6:	43 a5 10 00 	addi	16, sp, r10
 7001aaa:	c3 cc 2c 00 	ld.w	44[sp],r6
 7001aae:	ea 00       	mov	r10, r7
 7001ab0:	03 cd 38 00 	ld.w	56[sp],r8
 7001ab4:	40 bd 00 07 	movhi	1792, r0, r10
 7001ab8:	4a a1 ec 18 	movea	6380, r10, r10
 7001abc:	00 ac 04 00 	jal	7001ac0 <_g3d_rotateAllAxis+0xc4>
 7001ac0:	e4 47       	add	4, lp
 7001ac2:	0a 18       	jmp	[r10]
 7001ac4:	43 a5 10 00 	addi	16, sp, r10
 7001ac8:	c3 cc 38 00 	ld.w	56[sp],r6
 7001acc:	ea 00       	mov	r10, r7
 7001ace:	40 bd 00 07 	movhi	1792, r0, r10
 7001ad2:	4a a1 6c 17 	movea	5996, r10, r10
 7001ad6:	00 ac 04 00 	jal	7001ada <_g3d_rotateAllAxis+0xde>
 7001ada:	e4 47       	add	4, lp
 7001adc:	0a 18       	jmp	[r10]
 7001ade:	43 cd 28 00 	ld.w	40[sp],r10
 7001ae2:	40 0d       	cmp	r0, r10
 7001ae4:	3a 84       	be	7001b1e <_g3d_rotateAllAxis+0x122>
 7001ae6:	43 a5 10 00 	addi	16, sp, r10
 7001aea:	c3 cc 28 00 	ld.w	40[sp],r6
 7001aee:	ea 00       	mov	r10, r7
 7001af0:	03 cd 38 00 	ld.w	56[sp],r8
 7001af4:	40 bd 00 07 	movhi	1792, r0, r10
 7001af8:	4a a1 64 18 	movea	6244, r10, r10
 7001afc:	00 ac 04 00 	jal	7001b00 <_g3d_rotateAllAxis+0x104>
 7001b00:	e4 47       	add	4, lp
 7001b02:	0a 18       	jmp	[r10]
 7001b04:	43 a5 10 00 	addi	16, sp, r10
 7001b08:	c3 cc 38 00 	ld.w	56[sp],r6
 7001b0c:	ea 00       	mov	r10, r7
 7001b0e:	40 bd 00 07 	movhi	1792, r0, r10
 7001b12:	4a a1 6c 17 	movea	5996, r10, r10
 7001b16:	00 ac 04 00 	jal	7001b1a <_g3d_rotateAllAxis+0x11e>
 7001b1a:	e4 47       	add	4, lp
 7001b1c:	0a 18       	jmp	[r10]
 7001b1e:	43 cd 30 00 	ld.w	48[sp],r10
 7001b22:	40 0d       	cmp	r0, r10
 7001b24:	3a 84       	be	7001b5e <_g3d_rotateAllAxis+0x162>
 7001b26:	43 a5 10 00 	addi	16, sp, r10
 7001b2a:	c3 cc 30 00 	ld.w	48[sp],r6
 7001b2e:	ea 00       	mov	r10, r7
 7001b30:	03 cd 38 00 	ld.w	56[sp],r8
 7001b34:	40 bd 00 07 	movhi	1792, r0, r10
 7001b38:	4a a1 74 19 	movea	6516, r10, r10
 7001b3c:	00 ac 04 00 	jal	7001b40 <_g3d_rotateAllAxis+0x144>
 7001b40:	e4 47       	add	4, lp
 7001b42:	0a 18       	jmp	[r10]
 7001b44:	43 a5 10 00 	addi	16, sp, r10
 7001b48:	c3 cc 38 00 	ld.w	56[sp],r6
 7001b4c:	ea 00       	mov	r10, r7
 7001b4e:	40 bd 00 07 	movhi	1792, r0, r10
 7001b52:	4a a1 6c 17 	movea	5996, r10, r10
 7001b56:	00 ac 04 00 	jal	7001b5a <_g3d_rotateAllAxis+0x15e>
 7001b5a:	e4 47       	add	4, lp
 7001b5c:	0a 18       	jmp	[r10]
 7001b5e:	43 a5 10 00 	addi	16, sp, r10
 7001b62:	ca 00       	mov	r10, r6
 7001b64:	e3 cc 38 00 	ld.w	56[sp],r7
 7001b68:	40 bd 00 07 	movhi	1792, r0, r10
 7001b6c:	4a a1 6c 17 	movea	5996, r10, r10
 7001b70:	00 ac 04 00 	jal	7001b74 <_g3d_rotateAllAxis+0x178>
 7001b74:	e4 47       	add	4, lp
 7001b76:	0a 18       	jmp	[r10]
 7001b78:	e3 cf 24 00 	ld.w	36[sp],lp
 7001b7c:	63 a4 28 00 	addi	40, sp, sp
 7001b80:	1f 18       	jmp	[lp]
	...

07001b84 <_g3d_translate>:
 7001b84:	c3 dc 00 00 	st.w	r6, 0[sp]
 7001b88:	e3 dc 04 00 	st.w	r7, 4[sp]
 7001b8c:	03 dd 08 00 	st.w	r8, 8[sp]
 7001b90:	23 dd 0c 00 	st.w	r9, 12[sp]
 7001b94:	43 cd 00 00 	ld.w	0[sp],r10
 7001b98:	63 cd 04 00 	ld.w	4[sp],r11
 7001b9c:	83 cd 08 00 	ld.w	8[sp],r12
 7001ba0:	a3 cd 0c 00 	ld.w	12[sp],r13
 7001ba4:	c3 cd 10 00 	ld.w	16[sp],r14
 7001ba8:	ad cc 00 00 	ld.w	0[r13],r5
 7001bac:	aa 04       	add	r10, r5
 7001bae:	ae dc 00 00 	st.w	r5, 0[r14]
 7001bb2:	ad cc 04 00 	ld.w	4[r13],r5
 7001bb6:	ab 04       	add	r11, r5
 7001bb8:	ae dc 04 00 	st.w	r5, 4[r14]
 7001bbc:	ad cc 08 00 	ld.w	8[r13],r5
 7001bc0:	ac 04       	add	r12, r5
 7001bc2:	ae dc 08 00 	st.w	r5, 8[r14]
 7001bc6:	1f 18       	jmp	[lp]

07001bc8 <_g3d_cameraRotateAllAxis>:
 7001bc8:	63 a4 e8 ff 	addi	-24, sp, sp
 7001bcc:	e3 df 14 00 	st.w	lp, 20[sp]
 7001bd0:	c3 dc 18 00 	st.w	r6, 24[sp]
 7001bd4:	e3 dc 1c 00 	st.w	r7, 28[sp]
 7001bd8:	03 dd 20 00 	st.w	r8, 32[sp]
 7001bdc:	23 dd 24 00 	st.w	r9, 36[sp]
 7001be0:	a3 cc 18 00 	ld.w	24[sp],r5
 7001be4:	a5 3c       	not	r5, r5
 7001be6:	a5 a4 01 00 	addi	1, r5, r5
 7001bea:	a3 dc 18 00 	st.w	r5, 24[sp]
 7001bee:	a3 cc 1c 00 	ld.w	28[sp],r5
 7001bf2:	a5 3c       	not	r5, r5
 7001bf4:	a5 a4 01 00 	addi	1, r5, r5
 7001bf8:	a3 dc 1c 00 	st.w	r5, 28[sp]
 7001bfc:	a3 cc 20 00 	ld.w	32[sp],r5
 7001c00:	a5 3c       	not	r5, r5
 7001c02:	a5 a4 01 00 	addi	1, r5, r5
 7001c06:	a3 dc 20 00 	st.w	r5, 32[sp]
 7001c0a:	83 cd 18 00 	ld.w	24[sp],r12
 7001c0e:	63 cd 1c 00 	ld.w	28[sp],r11
 7001c12:	43 cd 20 00 	ld.w	32[sp],r10
 7001c16:	a3 cd 28 00 	ld.w	40[sp],r13
 7001c1a:	a3 dd 10 00 	st.w	r13, 16[sp]
 7001c1e:	cc 00       	mov	r12, r6
 7001c20:	eb 00       	mov	r11, r7
 7001c22:	0a 01       	mov	r10, r8
 7001c24:	23 cd 24 00 	ld.w	36[sp],r9
 7001c28:	40 bd 00 07 	movhi	1792, r0, r10
 7001c2c:	4a a1 fc 19 	movea	6652, r10, r10
 7001c30:	00 ac 04 00 	jal	7001c34 <_g3d_cameraRotateAllAxis+0x6c>
 7001c34:	e4 47       	add	4, lp
 7001c36:	0a 18       	jmp	[r10]
 7001c38:	e3 cf 14 00 	ld.w	20[sp],lp
 7001c3c:	63 a4 18 00 	addi	24, sp, sp
 7001c40:	1f 18       	jmp	[lp]
	...

07001c44 <_g3d_cameraTranslate>:
 7001c44:	c3 dc 00 00 	st.w	r6, 0[sp]
 7001c48:	e3 dc 04 00 	st.w	r7, 4[sp]
 7001c4c:	03 dd 08 00 	st.w	r8, 8[sp]
 7001c50:	23 dd 0c 00 	st.w	r9, 12[sp]
 7001c54:	43 cd 00 00 	ld.w	0[sp],r10
 7001c58:	63 cd 04 00 	ld.w	4[sp],r11
 7001c5c:	83 cd 08 00 	ld.w	8[sp],r12
 7001c60:	a3 cd 0c 00 	ld.w	12[sp],r13
 7001c64:	c3 cd 10 00 	ld.w	16[sp],r14
 7001c68:	ad cc 00 00 	ld.w	0[r13],r5
 7001c6c:	aa 08       	sub	r10, r5
 7001c6e:	ae dc 00 00 	st.w	r5, 0[r14]
 7001c72:	ad cc 04 00 	ld.w	4[r13],r5
 7001c76:	ab 08       	sub	r11, r5
 7001c78:	ae dc 04 00 	st.w	r5, 4[r14]
 7001c7c:	ad cc 08 00 	ld.w	8[r13],r5
 7001c80:	ac 08       	sub	r12, r5
 7001c82:	ae dc 08 00 	st.w	r5, 8[r14]
 7001c86:	1f 18       	jmp	[lp]

07001c88 <_g3d_renderVector3d>:
 7001c88:	63 a4 d4 ff 	addi	-44, sp, sp
 7001c8c:	e3 df 28 00 	st.w	lp, 40[sp]
 7001c90:	c3 dc 2c 00 	st.w	r6, 44[sp]
 7001c94:	e3 dc 30 00 	st.w	r7, 48[sp]
 7001c98:	03 dd 34 00 	st.w	r8, 52[sp]
 7001c9c:	49 01       	mov	r9, r10
 7001c9e:	43 d1 38 00 	st.b	r10, 56[sp]
 7001ca2:	43 cd 2c 00 	ld.w	44[sp],r10
 7001ca6:	6a a5 78 00 	addi	120, r10, r11
 7001caa:	43 a5 14 00 	addi	20, sp, r10
 7001cae:	cb 00       	mov	r11, r6
 7001cb0:	e3 cc 30 00 	ld.w	48[sp],r7
 7001cb4:	0a 01       	mov	r10, r8
 7001cb6:	40 bd 00 07 	movhi	1792, r0, r10
 7001cba:	4a a1 a8 17 	movea	6056, r10, r10
 7001cbe:	00 ac 04 00 	jal	7001cc2 <_g3d_renderVector3d+0x3a>
 7001cc2:	e4 47       	add	4, lp
 7001cc4:	0a 18       	jmp	[r10]
 7001cc6:	43 a5 14 00 	addi	20, sp, r10
 7001cca:	ca 00       	mov	r10, r6
 7001ccc:	e3 cc 34 00 	ld.w	52[sp],r7
 7001cd0:	40 bd 00 07 	movhi	1792, r0, r10
 7001cd4:	4a a1 6c 17 	movea	5996, r10, r10
 7001cd8:	00 ac 04 00 	jal	7001cdc <_g3d_renderVector3d+0x54>
 7001cdc:	e4 47       	add	4, lp
 7001cde:	0a 18       	jmp	[r10]
 7001ce0:	43 cd 2c 00 	ld.w	44[sp],r10
 7001ce4:	8a cd 28 00 	ld.w	40[r10],r12
 7001ce8:	43 cd 2c 00 	ld.w	44[sp],r10
 7001cec:	6a cd 2c 00 	ld.w	44[r10],r11
 7001cf0:	43 cd 2c 00 	ld.w	44[sp],r10
 7001cf4:	4a cd 30 00 	ld.w	48[r10],r10
 7001cf8:	a3 a5 14 00 	addi	20, sp, r13
 7001cfc:	a3 dd 10 00 	st.w	r13, 16[sp]
 7001d00:	cc 00       	mov	r12, r6
 7001d02:	eb 00       	mov	r11, r7
 7001d04:	0a 01       	mov	r10, r8
 7001d06:	23 cd 34 00 	ld.w	52[sp],r9
 7001d0a:	40 bd 00 07 	movhi	1792, r0, r10
 7001d0e:	4a a1 fc 19 	movea	6652, r10, r10
 7001d12:	00 ac 04 00 	jal	7001d16 <_g3d_renderVector3d+0x8e>
 7001d16:	e4 47       	add	4, lp
 7001d18:	0a 18       	jmp	[r10]
 7001d1a:	43 a5 14 00 	addi	20, sp, r10
 7001d1e:	ca 00       	mov	r10, r6
 7001d20:	e3 cc 34 00 	ld.w	52[sp],r7
 7001d24:	40 bd 00 07 	movhi	1792, r0, r10
 7001d28:	4a a1 6c 17 	movea	5996, r10, r10
 7001d2c:	00 ac 04 00 	jal	7001d30 <_g3d_renderVector3d+0xa8>
 7001d30:	e4 47       	add	4, lp
 7001d32:	0a 18       	jmp	[r10]
 7001d34:	43 cd 2c 00 	ld.w	44[sp],r10
 7001d38:	8a cd 00 00 	ld.w	0[r10],r12
 7001d3c:	43 cd 2c 00 	ld.w	44[sp],r10
 7001d40:	6a cd 04 00 	ld.w	4[r10],r11
 7001d44:	43 cd 2c 00 	ld.w	44[sp],r10
 7001d48:	4a cd 08 00 	ld.w	8[r10],r10
 7001d4c:	a3 a5 14 00 	addi	20, sp, r13
 7001d50:	a3 dd 10 00 	st.w	r13, 16[sp]
 7001d54:	cc 00       	mov	r12, r6
 7001d56:	eb 00       	mov	r11, r7
 7001d58:	0a 01       	mov	r10, r8
 7001d5a:	23 cd 34 00 	ld.w	52[sp],r9
 7001d5e:	40 bd 00 07 	movhi	1792, r0, r10
 7001d62:	4a a1 84 1b 	movea	7044, r10, r10
 7001d66:	00 ac 04 00 	jal	7001d6a <_g3d_renderVector3d+0xe2>
 7001d6a:	e4 47       	add	4, lp
 7001d6c:	0a 18       	jmp	[r10]
 7001d6e:	43 a5 14 00 	addi	20, sp, r10
 7001d72:	ca 00       	mov	r10, r6
 7001d74:	e3 cc 34 00 	ld.w	52[sp],r7
 7001d78:	40 bd 00 07 	movhi	1792, r0, r10
 7001d7c:	4a a1 6c 17 	movea	5996, r10, r10
 7001d80:	00 ac 04 00 	jal	7001d84 <_g3d_renderVector3d+0xfc>
 7001d84:	e4 47       	add	4, lp
 7001d86:	0a 18       	jmp	[r10]
 7001d88:	40 bd 00 05 	movhi	1280, r0, r10
 7001d8c:	4a a1 10 6b 	movea	27408, r10, r10
 7001d90:	4a cd 64 00 	ld.w	100[r10],r10
 7001d94:	40 0d       	cmp	r0, r10
 7001d96:	22 94       	bne	7001db8 <_g3d_renderVector3d+0x130>
 7001d98:	40 bd 00 05 	movhi	1280, r0, r10
 7001d9c:	4a a1 10 6b 	movea	27408, r10, r10
 7001da0:	4a cd 68 00 	ld.w	104[r10],r10
 7001da4:	40 0d       	cmp	r0, r10
 7001da6:	12 94       	bne	7001db8 <_g3d_renderVector3d+0x130>
 7001da8:	40 bd 00 05 	movhi	1280, r0, r10
 7001dac:	4a a1 10 6b 	movea	27408, r10, r10
 7001db0:	4a cd 6c 00 	ld.w	108[r10],r10
 7001db4:	40 0d       	cmp	r0, r10
 7001db6:	62 84       	be	7001e18 <_g3d_renderVector3d+0x190>
 7001db8:	40 bd 00 05 	movhi	1280, r0, r10
 7001dbc:	4a a1 10 6b 	movea	27408, r10, r10
 7001dc0:	8a cd 64 00 	ld.w	100[r10],r12
 7001dc4:	40 bd 00 05 	movhi	1280, r0, r10
 7001dc8:	4a a1 10 6b 	movea	27408, r10, r10
 7001dcc:	6a cd 68 00 	ld.w	104[r10],r11
 7001dd0:	40 bd 00 05 	movhi	1280, r0, r10
 7001dd4:	4a a1 10 6b 	movea	27408, r10, r10
 7001dd8:	4a cd 6c 00 	ld.w	108[r10],r10
 7001ddc:	a3 a5 14 00 	addi	20, sp, r13
 7001de0:	a3 dd 10 00 	st.w	r13, 16[sp]
 7001de4:	cc 00       	mov	r12, r6
 7001de6:	eb 00       	mov	r11, r7
 7001de8:	0a 01       	mov	r10, r8
 7001dea:	23 cd 34 00 	ld.w	52[sp],r9
 7001dee:	40 bd 00 07 	movhi	1792, r0, r10
 7001df2:	4a a1 c8 1b 	movea	7112, r10, r10
 7001df6:	00 ac 04 00 	jal	7001dfa <_g3d_renderVector3d+0x172>
 7001dfa:	e4 47       	add	4, lp
 7001dfc:	0a 18       	jmp	[r10]
 7001dfe:	43 a5 14 00 	addi	20, sp, r10
 7001e02:	ca 00       	mov	r10, r6
 7001e04:	e3 cc 34 00 	ld.w	52[sp],r7
 7001e08:	40 bd 00 07 	movhi	1792, r0, r10
 7001e0c:	4a a1 6c 17 	movea	5996, r10, r10
 7001e10:	00 ac 04 00 	jal	7001e14 <_g3d_renderVector3d+0x18c>
 7001e14:	e4 47       	add	4, lp
 7001e16:	0a 18       	jmp	[r10]
 7001e18:	40 bd 00 05 	movhi	1280, r0, r10
 7001e1c:	4a a1 10 6b 	movea	27408, r10, r10
 7001e20:	8a cd 00 00 	ld.w	0[r10],r12
 7001e24:	40 bd 00 05 	movhi	1280, r0, r10
 7001e28:	4a a1 10 6b 	movea	27408, r10, r10
 7001e2c:	6a cd 04 00 	ld.w	4[r10],r11
 7001e30:	40 bd 00 05 	movhi	1280, r0, r10
 7001e34:	4a a1 10 6b 	movea	27408, r10, r10
 7001e38:	4a cd 08 00 	ld.w	8[r10],r10
 7001e3c:	a3 a5 14 00 	addi	20, sp, r13
 7001e40:	a3 dd 10 00 	st.w	r13, 16[sp]
 7001e44:	cc 00       	mov	r12, r6
 7001e46:	eb 00       	mov	r11, r7
 7001e48:	0a 01       	mov	r10, r8
 7001e4a:	23 cd 34 00 	ld.w	52[sp],r9
 7001e4e:	40 bd 00 07 	movhi	1792, r0, r10
 7001e52:	4a a1 44 1c 	movea	7236, r10, r10
 7001e56:	00 ac 04 00 	jal	7001e5a <_g3d_renderVector3d+0x1d2>
 7001e5a:	e4 47       	add	4, lp
 7001e5c:	0a 18       	jmp	[r10]
 7001e5e:	43 a5 14 00 	addi	20, sp, r10
 7001e62:	ca 00       	mov	r10, r6
 7001e64:	e3 cc 34 00 	ld.w	52[sp],r7
 7001e68:	40 bd 00 07 	movhi	1792, r0, r10
 7001e6c:	4a a1 6c 17 	movea	5996, r10, r10
 7001e70:	00 ac 04 00 	jal	7001e74 <_g3d_renderVector3d+0x1ec>
 7001e74:	e4 47       	add	4, lp
 7001e76:	0a 18       	jmp	[r10]
 7001e78:	e3 cf 28 00 	ld.w	40[sp],lp
 7001e7c:	63 a4 2c 00 	addi	44, sp, sp
 7001e80:	1f 18       	jmp	[lp]
	...

07001e84 <_g3d_calculateProjection>:
 7001e84:	c3 dc 00 00 	st.w	r6, 0[sp]
 7001e88:	43 cd 00 00 	ld.w	0[sp],r10
 7001e8c:	4a a6 0c 00 	addi	12, r10, r18
 7001e90:	43 cd 00 00 	ld.w	0[sp],r10
 7001e94:	6a a6 10 00 	addi	16, r10, r19
 7001e98:	c3 cd 00 00 	ld.w	0[sp],r14
 7001e9c:	e3 cd 00 00 	ld.w	0[sp],r15
 7001ea0:	03 ce 00 00 	ld.w	0[sp],r16
 7001ea4:	40 bd 00 05 	movhi	1280, r0, r10
 7001ea8:	2a a2 10 6b 	movea	27408, r10, r17
 7001eac:	ce cc 00 00 	ld.w	0[r14],r6
 7001eb0:	ef cc 04 00 	ld.w	4[r15],r7
 7001eb4:	10 cd 08 00 	ld.w	8[r16],r8
 7001eb8:	31 cd 8c 00 	ld.w	140[r17],r9
 7001ebc:	40 a1 a0 00 	movea	160, r0, r10
 7001ec0:	60 a1 40 00 	movea	64, r0, r11
 7001ec4:	80 a1 80 00 	movea	128, r0, r12
 7001ec8:	43 51       	shl	3, r10
 7001eca:	63 51       	shl	3, r11
 7001ecc:	c8 50       	shl	8, r6
 7001ece:	e8 50       	shl	8, r7
 7001ed0:	09 05       	add	r9, r8
 7001ed2:	c3 50       	shl	3, r6
 7001ed4:	c8 24       	div	r8, r6
 7001ed6:	e3 50       	shl	3, r7
 7001ed8:	e8 24       	div	r8, r7
 7001eda:	ca 04       	add	r10, r6
 7001edc:	eb 04       	add	r11, r7
 7001ede:	c3 5c       	sar	3, r6
 7001ee0:	d2 dc 00 00 	st.w	r6, 0[r18]
 7001ee4:	e3 5c       	sar	3, r7
 7001ee6:	87 09       	sub	r7, r12
 7001ee8:	93 dd 00 00 	st.w	r12, 0[r19]
 7001eec:	1f 18       	jmp	[lp]
	...

07001ef0 <_g3d_drawObject>:
 7001ef0:	63 a4 a4 ff 	addi	-92, sp, sp
 7001ef4:	e3 df 58 00 	st.w	lp, 88[sp]
 7001ef8:	c3 dc 5c 00 	st.w	r6, 92[sp]
 7001efc:	43 a5 24 00 	addi	36, sp, r10
 7001f00:	43 dd 4c 00 	st.w	r10, 76[sp]
 7001f04:	43 a5 10 00 	addi	16, sp, r10
 7001f08:	43 dd 50 00 	st.w	r10, 80[sp]
 7001f0c:	c3 cc 5c 00 	ld.w	92[sp],r6
 7001f10:	40 bd 00 07 	movhi	1792, r0, r10
 7001f14:	4a a1 a8 27 	movea	10152, r10, r10
 7001f18:	00 ac 04 00 	jal	7001f1c <_g3d_drawObject+0x2c>
 7001f1c:	e4 47       	add	4, lp
 7001f1e:	0a 18       	jmp	[r10]
 7001f20:	43 cd 5c 00 	ld.w	92[sp],r10
 7001f24:	4a cd a0 00 	ld.w	160[r10],r10
 7001f28:	40 0d       	cmp	r0, r10
 7001f2a:	06 94       	bne	7001f30 <_g3d_drawObject+0x40>
 7001f2c:	00 a8 bc 01 	jr	70020e8 <_g3d_drawObject+0x1f8>
 7001f30:	43 cd 5c 00 	ld.w	92[sp],r10
 7001f34:	4a cd a4 00 	ld.w	164[r10],r10
 7001f38:	41 4d       	cmp	1, r10
 7001f3a:	06 94       	bne	7001f40 <_g3d_drawObject+0x50>
 7001f3c:	00 a8 b0 01 	jr	70020ec <_g3d_drawObject+0x1fc>
 7001f40:	43 cd 5c 00 	ld.w	92[sp],r10
 7001f44:	4a cd c0 00 	ld.w	192[r10],r10
 7001f48:	4a cd 00 00 	ld.w	0[r10],r10
 7001f4c:	43 dd 38 00 	st.w	r10, 56[sp]
 7001f50:	43 cd 5c 00 	ld.w	92[sp],r10
 7001f54:	4a cd c0 00 	ld.w	192[r10],r10
 7001f58:	4a cd 04 00 	ld.w	4[r10],r10
 7001f5c:	43 dd 3c 00 	st.w	r10, 60[sp]
 7001f60:	43 cd 5c 00 	ld.w	92[sp],r10
 7001f64:	4a cd c0 00 	ld.w	192[r10],r10
 7001f68:	4a cd 08 00 	ld.w	8[r10],r10
 7001f6c:	43 dd 44 00 	st.w	r10, 68[sp]
 7001f70:	03 dc 40 00 	st.w	r0, 64[sp]
 7001f74:	03 dc 48 00 	st.w	r0, 72[sp]
 7001f78:	c3 cc 5c 00 	ld.w	92[sp],r6
 7001f7c:	40 bd 00 07 	movhi	1792, r0, r10
 7001f80:	4a a1 f8 20 	movea	8440, r10, r10
 7001f84:	00 ac 04 00 	jal	7001f88 <_g3d_drawObject+0x98>
 7001f88:	e4 47       	add	4, lp
 7001f8a:	0a 18       	jmp	[r10]
 7001f8c:	43 cd 38 00 	ld.w	56[sp],r10
 7001f90:	43 dd 40 00 	st.w	r10, 64[sp]
 7001f94:	00 a8 3c 01 	jr	70020d0 <_g3d_drawObject+0x1e0>
 7001f98:	43 cd 5c 00 	ld.w	92[sp],r10
 7001f9c:	6a cd c0 00 	ld.w	192[r10],r11
 7001fa0:	43 cd 40 00 	ld.w	64[sp],r10
 7001fa4:	43 45       	add	3, r10
 7001fa6:	42 51       	shl	2, r10
 7001fa8:	4b 05       	add	r11, r10
 7001faa:	4a cd 00 00 	ld.w	0[r10],r10
 7001fae:	42 51       	shl	2, r10
 7001fb0:	6a 01       	mov	r10, r11
 7001fb2:	62 51       	shl	2, r11
 7001fb4:	4b 05       	add	r11, r10
 7001fb6:	60 bd 00 05 	movhi	1280, r0, r11
 7001fba:	6b a1 50 0d 	movea	3408, r11, r11
 7001fbe:	4b 05       	add	r11, r10
 7001fc0:	43 dd 4c 00 	st.w	r10, 76[sp]
 7001fc4:	41 41       	mov	1, r10
 7001fc6:	43 dd 48 00 	st.w	r10, 72[sp]
 7001fca:	f0 8a       	br	70020ba <_g3d_drawObject+0x1ca>
 7001fcc:	43 cd 40 00 	ld.w	64[sp],r10
 7001fd0:	41 45       	add	1, r10
 7001fd2:	43 dd 40 00 	st.w	r10, 64[sp]
 7001fd6:	43 cd 5c 00 	ld.w	92[sp],r10
 7001fda:	6a cd c0 00 	ld.w	192[r10],r11
 7001fde:	43 cd 40 00 	ld.w	64[sp],r10
 7001fe2:	43 45       	add	3, r10
 7001fe4:	42 51       	shl	2, r10
 7001fe6:	4b 05       	add	r11, r10
 7001fe8:	4a cd 00 00 	ld.w	0[r10],r10
 7001fec:	42 51       	shl	2, r10
 7001fee:	6a 01       	mov	r10, r11
 7001ff0:	62 51       	shl	2, r11
 7001ff2:	4b 05       	add	r11, r10
 7001ff4:	60 bd 00 05 	movhi	1280, r0, r11
 7001ff8:	6b a1 50 0d 	movea	3408, r11, r11
 7001ffc:	4b 05       	add	r11, r10
 7001ffe:	43 dd 50 00 	st.w	r10, 80[sp]
 7002002:	43 cd 4c 00 	ld.w	76[sp],r10
 7002006:	6a cd 08 00 	ld.w	8[r10],r11
 700200a:	40 bd 00 05 	movhi	1280, r0, r10
 700200e:	4a a1 10 6b 	movea	27408, r10, r10
 7002012:	4a cd 8c 00 	ld.w	140[r10],r10
 7002016:	6a 0d       	cmp	r10, r11
 7002018:	1a 9e       	bgt	7002032 <_g3d_drawObject+0x142>
 700201a:	43 cd 50 00 	ld.w	80[sp],r10
 700201e:	6a cd 08 00 	ld.w	8[r10],r11
 7002022:	40 bd 00 05 	movhi	1280, r0, r10
 7002026:	4a a1 10 6b 	movea	27408, r10, r10
 700202a:	4a cd 8c 00 	ld.w	140[r10],r10
 700202e:	6a 0d       	cmp	r10, r11
 7002030:	68 8e       	ble	7002098 <_g3d_drawObject+0x1a8>
 7002032:	c3 cc 4c 00 	ld.w	76[sp],r6
 7002036:	e3 cc 50 00 	ld.w	80[sp],r7
 700203a:	40 bd 00 07 	movhi	1792, r0, r10
 700203e:	4a a1 64 29 	movea	10596, r10, r10
 7002042:	00 ac 04 00 	jal	7002046 <_g3d_drawObject+0x156>
 7002046:	e4 47       	add	4, lp
 7002048:	0a 18       	jmp	[r10]
 700204a:	c3 cc 4c 00 	ld.w	76[sp],r6
 700204e:	40 bd 00 07 	movhi	1792, r0, r10
 7002052:	4a a1 84 1e 	movea	7812, r10, r10
 7002056:	00 ac 04 00 	jal	700205a <_g3d_drawObject+0x16a>
 700205a:	e4 47       	add	4, lp
 700205c:	0a 18       	jmp	[r10]
 700205e:	c3 cc 50 00 	ld.w	80[sp],r6
 7002062:	40 bd 00 07 	movhi	1792, r0, r10
 7002066:	4a a1 84 1e 	movea	7812, r10, r10
 700206a:	00 ac 04 00 	jal	700206e <_g3d_drawObject+0x17e>
 700206e:	e4 47       	add	4, lp
 7002070:	0a 18       	jmp	[r10]
 7002072:	43 cd 5c 00 	ld.w	92[sp],r10
 7002076:	4a cd ac 00 	ld.w	172[r10],r10
 700207a:	4a b5 ff 00 	andi	255, r10, r10
 700207e:	c3 cc 4c 00 	ld.w	76[sp],r6
 7002082:	e3 cc 50 00 	ld.w	80[sp],r7
 7002086:	0a 01       	mov	r10, r8
 7002088:	40 bd 00 07 	movhi	1792, r0, r10
 700208c:	4a a1 a8 2c 	movea	11432, r10, r10
 7002090:	00 ac 04 00 	jal	7002094 <_g3d_drawObject+0x1a4>
 7002094:	e4 47       	add	4, lp
 7002096:	0a 18       	jmp	[r10]
 7002098:	43 cd 50 00 	ld.w	80[sp],r10
 700209c:	43 dd 54 00 	st.w	r10, 84[sp]
 70020a0:	43 cd 50 00 	ld.w	80[sp],r10
 70020a4:	43 dd 4c 00 	st.w	r10, 76[sp]
 70020a8:	43 cd 54 00 	ld.w	84[sp],r10
 70020ac:	43 dd 50 00 	st.w	r10, 80[sp]
 70020b0:	43 cd 48 00 	ld.w	72[sp],r10
 70020b4:	41 45       	add	1, r10
 70020b6:	43 dd 48 00 	st.w	r10, 72[sp]
 70020ba:	63 cd 48 00 	ld.w	72[sp],r11
 70020be:	43 cd 44 00 	ld.w	68[sp],r10
 70020c2:	6a 0d       	cmp	r10, r11
 70020c4:	08 8d       	blt	7001fcc <_g3d_drawObject+0xdc>
 70020c6:	43 cd 40 00 	ld.w	64[sp],r10
 70020ca:	41 45       	add	1, r10
 70020cc:	43 dd 40 00 	st.w	r10, 64[sp]
 70020d0:	63 cd 3c 00 	ld.w	60[sp],r11
 70020d4:	43 cd 38 00 	ld.w	56[sp],r10
 70020d8:	6a 05       	add	r10, r11
 70020da:	43 cd 40 00 	ld.w	64[sp],r10
 70020de:	6a 0d       	cmp	r10, r11
 70020e0:	06 8e       	ble	70020e6 <_g3d_drawObject+0x1f6>
 70020e2:	ff ab b6 fe 	jr	7001f98 <_g3d_drawObject+0xa8>
 70020e6:	08 8a       	br	70020ee <_g3d_drawObject+0x1fe>
 70020e8:	00 9a       	nop	
 70020ea:	04 8a       	br	70020ee <_g3d_drawObject+0x1fe>
 70020ec:	00 9a       	nop	
 70020ee:	e3 cf 58 00 	ld.w	88[sp],lp
 70020f2:	63 a4 5c 00 	addi	92, sp, sp
 70020f6:	1f 18       	jmp	[lp]

070020f8 <_g3d_renderObject>:
 70020f8:	63 a4 cc ff 	addi	-52, sp, sp
 70020fc:	e3 df 30 00 	st.w	lp, 48[sp]
 7002100:	43 dc 2c 00 	st.w	r2, 44[sp]
 7002104:	83 de 28 00 	st.w	r20, 40[sp]
 7002108:	a3 de 24 00 	st.w	r21, 36[sp]
 700210c:	c3 de 20 00 	st.w	r22, 32[sp]
 7002110:	e3 de 1c 00 	st.w	r23, 28[sp]
 7002114:	03 df 18 00 	st.w	r24, 24[sp]
 7002118:	23 df 14 00 	st.w	r25, 20[sp]
 700211c:	43 df 10 00 	st.w	r26, 16[sp]
 7002120:	63 df 0c 00 	st.w	r27, 12[sp]
 7002124:	83 df 08 00 	st.w	r28, 8[sp]
 7002128:	a3 df 04 00 	st.w	r29, 4[sp]
 700212c:	c3 dc 34 00 	st.w	r6, 52[sp]
 7002130:	43 cd 34 00 	ld.w	52[sp],r10
 7002134:	4a cd c0 00 	ld.w	192[r10],r10
 7002138:	4a cf 00 00 	ld.w	0[r10],r26
 700213c:	43 cd 34 00 	ld.w	52[sp],r10
 7002140:	4a cd c0 00 	ld.w	192[r10],r10
 7002144:	2a a7 0c 00 	addi	12, r10, r25
 7002148:	43 cd 34 00 	ld.w	52[sp],r10
 700214c:	aa a4 b4 00 	addi	180, r10, r5
 7002150:	e3 cf 34 00 	ld.w	52[sp],lp
 7002154:	40 bd 00 05 	movhi	1280, r0, r10
 7002158:	aa a3 10 6b 	movea	27408, r10, r29
 700215c:	40 bd 00 07 	movhi	1792, r0, r10
 7002160:	8a a3 2c 6a 	movea	27180, r10, r28
 7002164:	40 bd 00 07 	movhi	1792, r0, r10
 7002168:	6a a3 cc 6f 	movea	28620, r10, r27
 700216c:	00 43       	mov	0, r24
 700216e:	40 bd 00 05 	movhi	1280, r0, r10
 7002172:	4a a0 50 0d 	movea	3408, r10, r2
 7002176:	c0 00       	mov	r0, r6

07002178 <objCosineSineX>:
 7002178:	3f ce 28 00 	ld.w	40[lp],r17
 700217c:	d1 30       	or	r17, r6
 700217e:	20 0e       	cmp	r0, r17
 7002180:	06 9c       	bge	7002186 <_x_ge_0>
 7002182:	31 a6 67 01 	addi	359, r17, r17

07002186 <_x_ge_0>:
 7002186:	22 52       	shl	2, r17
 7002188:	51 02       	mov	r17, r18
 700218a:	5c 06       	add	r28, r18
 700218c:	52 ce 00 00 	ld.w	0[r18],r18
 7002190:	52 b6 ff 00 	andi	255, r18, r18
 7002194:	58 52       	shl	24, r18
 7002196:	f2 00       	mov	r18, r7
 7002198:	51 02       	mov	r17, r18
 700219a:	5b 06       	add	r27, r18
 700219c:	52 ce 00 00 	ld.w	0[r18],r18
 70021a0:	52 b6 ff 00 	andi	255, r18, r18
 70021a4:	50 52       	shl	16, r18
 70021a6:	f2 30       	or	r18, r7

070021a8 <objCosineSineY>:
 70021a8:	3f ce 2c 00 	ld.w	44[lp],r17
 70021ac:	d1 30       	or	r17, r6
 70021ae:	20 0e       	cmp	r0, r17
 70021b0:	06 9c       	bge	70021b6 <_y_ge_0>
 70021b2:	31 a6 67 01 	addi	359, r17, r17

070021b6 <_y_ge_0>:
 70021b6:	22 52       	shl	2, r17
 70021b8:	51 02       	mov	r17, r18
 70021ba:	5c 06       	add	r28, r18
 70021bc:	52 ce 00 00 	ld.w	0[r18],r18
 70021c0:	52 b6 ff 00 	andi	255, r18, r18
 70021c4:	48 52       	shl	8, r18
 70021c6:	f2 30       	or	r18, r7
 70021c8:	51 02       	mov	r17, r18
 70021ca:	5b 06       	add	r27, r18
 70021cc:	52 ce 00 00 	ld.w	0[r18],r18
 70021d0:	52 b6 ff 00 	andi	255, r18, r18
 70021d4:	f2 30       	or	r18, r7

070021d6 <objCosineSineZ>:
 70021d6:	3f ce 30 00 	ld.w	48[lp],r17
 70021da:	d1 30       	or	r17, r6
 70021dc:	20 0e       	cmp	r0, r17
 70021de:	06 9c       	bge	70021e4 <_z_ge_0>
 70021e0:	31 a6 67 01 	addi	359, r17, r17

070021e4 <_z_ge_0>:
 70021e4:	22 52       	shl	2, r17
 70021e6:	51 02       	mov	r17, r18
 70021e8:	5c 06       	add	r28, r18
 70021ea:	52 ce 00 00 	ld.w	0[r18],r18
 70021ee:	58 52       	shl	24, r18
 70021f0:	12 01       	mov	r18, r8
 70021f2:	51 02       	mov	r17, r18
 70021f4:	5b 06       	add	r27, r18
 70021f6:	52 ce 00 00 	ld.w	0[r18],r18
 70021fa:	52 b6 ff 00 	andi	255, r18, r18
 70021fe:	50 52       	shl	16, r18
 7002200:	12 31       	or	r18, r8

07002202 <camCosineSineX>:
 7002202:	3d ce 64 00 	ld.w	100[r29],r17
 7002206:	d1 30       	or	r17, r6
 7002208:	31 3e       	not	r17, r17
 700220a:	31 a6 01 00 	addi	1, r17, r17
 700220e:	20 0e       	cmp	r0, r17
 7002210:	06 9c       	bge	7002216 <_cam_x_ge_0>
 7002212:	31 a6 67 01 	addi	359, r17, r17

07002216 <_cam_x_ge_0>:
 7002216:	22 52       	shl	2, r17
 7002218:	51 02       	mov	r17, r18
 700221a:	5c 06       	add	r28, r18
 700221c:	52 ce 00 00 	ld.w	0[r18],r18
 7002220:	52 b6 ff 00 	andi	255, r18, r18
 7002224:	48 52       	shl	8, r18
 7002226:	12 31       	or	r18, r8
 7002228:	51 02       	mov	r17, r18
 700222a:	5b 06       	add	r27, r18
 700222c:	52 ce 00 00 	ld.w	0[r18],r18
 7002230:	52 b6 ff 00 	andi	255, r18, r18
 7002234:	12 31       	or	r18, r8

07002236 <camCosineSineY>:
 7002236:	3d ce 68 00 	ld.w	104[r29],r17
 700223a:	d1 30       	or	r17, r6
 700223c:	31 3e       	not	r17, r17
 700223e:	31 a6 01 00 	addi	1, r17, r17
 7002242:	20 0e       	cmp	r0, r17
 7002244:	06 9c       	bge	700224a <_cam_y_ge_0>
 7002246:	31 a6 67 01 	addi	359, r17, r17

0700224a <_cam_y_ge_0>:
 700224a:	22 52       	shl	2, r17
 700224c:	51 02       	mov	r17, r18
 700224e:	5c 06       	add	r28, r18
 7002250:	52 ce 00 00 	ld.w	0[r18],r18
 7002254:	52 b6 ff 00 	andi	255, r18, r18
 7002258:	58 52       	shl	24, r18
 700225a:	32 01       	mov	r18, r9
 700225c:	51 02       	mov	r17, r18
 700225e:	5b 06       	add	r27, r18
 7002260:	52 ce 00 00 	ld.w	0[r18],r18
 7002264:	52 b6 ff 00 	andi	255, r18, r18
 7002268:	50 52       	shl	16, r18
 700226a:	32 31       	or	r18, r9

0700226c <camCosineSineZ>:
 700226c:	3d ce 6c 00 	ld.w	108[r29],r17
 7002270:	d1 30       	or	r17, r6
 7002272:	31 3e       	not	r17, r17
 7002274:	31 a6 01 00 	addi	1, r17, r17
 7002278:	20 0e       	cmp	r0, r17
 700227a:	06 9c       	bge	7002280 <_cam_z_ge_0>
 700227c:	31 a6 67 01 	addi	359, r17, r17

07002280 <_cam_z_ge_0>:
 7002280:	22 52       	shl	2, r17
 7002282:	51 02       	mov	r17, r18
 7002284:	5c 06       	add	r28, r18
 7002286:	52 ce 00 00 	ld.w	0[r18],r18
 700228a:	52 b6 ff 00 	andi	255, r18, r18
 700228e:	48 52       	shl	8, r18
 7002290:	32 31       	or	r18, r9
 7002292:	51 02       	mov	r17, r18
 7002294:	5b 06       	add	r27, r18
 7002296:	52 ce 00 00 	ld.w	0[r18],r18
 700229a:	52 b6 ff 00 	andi	255, r18, r18
 700229e:	32 31       	or	r18, r9

070022a0 <objLoadPosition>:
 70022a0:	5f cd 00 00 	ld.w	0[lp],r10
 70022a4:	7f cd 04 00 	ld.w	4[lp],r11
 70022a8:	9f cd 08 00 	ld.w	8[lp],r12

070022ac <camLoadPosition>:
 70022ac:	bd cd 00 00 	ld.w	0[r29],r13
 70022b0:	ad 3d       	not	r13, r13
 70022b2:	ad a5 01 00 	addi	1, r13, r13
 70022b6:	dd cd 04 00 	ld.w	4[r29],r14
 70022ba:	ce 3d       	not	r14, r14
 70022bc:	ce a5 01 00 	addi	1, r14, r14
 70022c0:	fd cd 08 00 	ld.w	8[r29],r15
 70022c4:	ef 3d       	not	r15, r15
 70022c6:	ef a5 01 00 	addi	1, r15, r15
 70022ca:	22 42       	mov	2, r17
 70022cc:	38 72       	ldsr	r17, chcw

070022ce <_renderObjectTop>:
 70022ce:	40 0f       	cmp	r0, r26
 70022d0:	06 9e       	bgt	70022d6 <objLoadVertex>
 70022d2:	00 a8 9c 01 	jr	700246e <_verts_le_0>

070022d6 <objLoadVertex>:
 70022d6:	79 ce 00 00 	ld.w	0[r25],r19
 70022da:	99 ce 04 00 	ld.w	4[r25],r20
 70022de:	b9 ce 08 00 	ld.w	8[r25],r21
 70022e2:	5a a7 fd ff 	addi	-3, r26, r26

070022e6 <objScaling>:
 70022e6:	3f ce 78 00 	ld.w	120[lp],r17
 70022ea:	28 4e       	cmp	8, r17
 70022ec:	06 84       	be	70022f2 <_skip_scale_x>
 70022ee:	71 22       	mul	r17, r19
 70022f0:	63 5e       	sar	3, r19

070022f2 <_skip_scale_x>:
 70022f2:	3f ce 7c 00 	ld.w	124[lp],r17
 70022f6:	28 4e       	cmp	8, r17
 70022f8:	06 84       	be	70022fe <_skip_scale_y>
 70022fa:	91 22       	mul	r17, r20
 70022fc:	83 5e       	sar	3, r20

070022fe <_skip_scale_y>:
 70022fe:	3f ce 80 00 	ld.w	128[lp],r17
 7002302:	28 4e       	cmp	8, r17
 7002304:	06 84       	be	700230a <_skip_scale_z>
 7002306:	b1 22       	mul	r17, r21
 7002308:	a3 5e       	sar	3, r21

0700230a <_skip_scale_z>:
 700230a:	c0 0c       	cmp	r0, r6
 700230c:	9c 84       	be	70023a8 <_skip_obj_rot_z>

0700230e <objXAxisRot>:
 700230e:	27 02       	mov	r7, r17
 7002310:	38 5e       	sar	24, r17
 7002312:	35 22       	mul	r21, r17
 7002314:	23 5e       	sar	3, r17
 7002316:	47 02       	mov	r7, r18
 7002318:	48 52       	shl	8, r18
 700231a:	58 5e       	sar	24, r18
 700231c:	54 22       	mul	r20, r18
 700231e:	43 5e       	sar	3, r18
 7002320:	32 06       	add	r18, r17
 7002322:	47 02       	mov	r7, r18
 7002324:	48 52       	shl	8, r18
 7002326:	58 5e       	sar	24, r18
 7002328:	52 3e       	not	r18, r18
 700232a:	52 a6 01 00 	addi	1, r18, r18
 700232e:	55 22       	mul	r21, r18
 7002330:	43 5e       	sar	3, r18
 7002332:	c7 02       	mov	r7, r22
 7002334:	d8 5e       	sar	24, r22
 7002336:	d4 22       	mul	r20, r22
 7002338:	c3 5e       	sar	3, r22
 700233a:	56 06       	add	r22, r18
 700233c:	b1 02       	mov	r17, r21
 700233e:	92 02       	mov	r18, r20

07002340 <_skip_obj_rot_x>:
 7002340:	27 02       	mov	r7, r17
 7002342:	30 52       	shl	16, r17
 7002344:	38 5e       	sar	24, r17
 7002346:	33 22       	mul	r19, r17
 7002348:	23 5e       	sar	3, r17
 700234a:	47 02       	mov	r7, r18
 700234c:	58 52       	shl	24, r18
 700234e:	58 5e       	sar	24, r18
 7002350:	55 22       	mul	r21, r18
 7002352:	43 5e       	sar	3, r18
 7002354:	32 06       	add	r18, r17
 7002356:	47 02       	mov	r7, r18
 7002358:	58 52       	shl	24, r18
 700235a:	58 5e       	sar	24, r18
 700235c:	52 3e       	not	r18, r18
 700235e:	52 a6 01 00 	addi	1, r18, r18
 7002362:	53 22       	mul	r19, r18
 7002364:	43 5e       	sar	3, r18
 7002366:	c7 02       	mov	r7, r22
 7002368:	d0 52       	shl	16, r22
 700236a:	d8 5e       	sar	24, r22
 700236c:	d5 22       	mul	r21, r22
 700236e:	c3 5e       	sar	3, r22
 7002370:	56 06       	add	r22, r18
 7002372:	71 02       	mov	r17, r19
 7002374:	b2 02       	mov	r18, r21

07002376 <_skip_obj_rot_y>:
 7002376:	28 02       	mov	r8, r17
 7002378:	38 5e       	sar	24, r17
 700237a:	33 22       	mul	r19, r17
 700237c:	23 5e       	sar	3, r17
 700237e:	48 02       	mov	r8, r18
 7002380:	48 52       	shl	8, r18
 7002382:	58 5e       	sar	24, r18
 7002384:	54 22       	mul	r20, r18
 7002386:	43 5e       	sar	3, r18
 7002388:	32 06       	add	r18, r17
 700238a:	48 02       	mov	r8, r18
 700238c:	48 52       	shl	8, r18
 700238e:	58 5e       	sar	24, r18
 7002390:	52 3e       	not	r18, r18
 7002392:	52 a6 01 00 	addi	1, r18, r18
 7002396:	53 22       	mul	r19, r18
 7002398:	43 5e       	sar	3, r18
 700239a:	c8 02       	mov	r8, r22
 700239c:	d8 5e       	sar	24, r22
 700239e:	d4 22       	mul	r20, r22
 70023a0:	c3 5e       	sar	3, r22
 70023a2:	56 06       	add	r22, r18
 70023a4:	71 02       	mov	r17, r19
 70023a6:	92 02       	mov	r18, r20

070023a8 <_skip_obj_rot_z>:
 70023a8:	6a 06       	add	r10, r19
 70023aa:	8b 06       	add	r11, r20
 70023ac:	ac 06       	add	r12, r21
 70023ae:	c0 0c       	cmp	r0, r6
 70023b0:	a0 84       	be	7002450 <_skip_cam_rot_z>

070023b2 <camRotXAxis>:
 70023b2:	28 02       	mov	r8, r17
 70023b4:	30 52       	shl	16, r17
 70023b6:	38 5e       	sar	24, r17
 70023b8:	35 22       	mul	r21, r17
 70023ba:	23 5e       	sar	3, r17
 70023bc:	48 02       	mov	r8, r18
 70023be:	58 52       	shl	24, r18
 70023c0:	58 5e       	sar	24, r18
 70023c2:	54 22       	mul	r20, r18
 70023c4:	43 5e       	sar	3, r18
 70023c6:	32 06       	add	r18, r17
 70023c8:	48 02       	mov	r8, r18
 70023ca:	58 52       	shl	24, r18
 70023cc:	58 5e       	sar	24, r18
 70023ce:	52 3e       	not	r18, r18
 70023d0:	52 a6 01 00 	addi	1, r18, r18
 70023d4:	55 22       	mul	r21, r18
 70023d6:	43 5e       	sar	3, r18
 70023d8:	c8 02       	mov	r8, r22
 70023da:	d0 52       	shl	16, r22
 70023dc:	d8 5e       	sar	24, r22
 70023de:	d4 22       	mul	r20, r22
 70023e0:	c3 5e       	sar	3, r22
 70023e2:	56 06       	add	r22, r18
 70023e4:	b1 02       	mov	r17, r21
 70023e6:	92 02       	mov	r18, r20

070023e8 <_skip_cam_rot_x>:
 70023e8:	29 02       	mov	r9, r17
 70023ea:	38 5e       	sar	24, r17
 70023ec:	33 22       	mul	r19, r17
 70023ee:	23 5e       	sar	3, r17
 70023f0:	49 02       	mov	r9, r18
 70023f2:	48 52       	shl	8, r18
 70023f4:	58 5e       	sar	24, r18
 70023f6:	55 22       	mul	r21, r18
 70023f8:	43 5e       	sar	3, r18
 70023fa:	32 06       	add	r18, r17
 70023fc:	49 02       	mov	r9, r18
 70023fe:	48 52       	shl	8, r18
 7002400:	58 5e       	sar	24, r18
 7002402:	52 3e       	not	r18, r18
 7002404:	52 a6 01 00 	addi	1, r18, r18
 7002408:	53 22       	mul	r19, r18
 700240a:	43 5e       	sar	3, r18
 700240c:	c9 02       	mov	r9, r22
 700240e:	d8 5e       	sar	24, r22
 7002410:	d5 22       	mul	r21, r22
 7002412:	c3 5e       	sar	3, r22
 7002414:	56 06       	add	r22, r18
 7002416:	71 02       	mov	r17, r19
 7002418:	b2 02       	mov	r18, r21

0700241a <_skip_cam_rot_y>:
 700241a:	29 02       	mov	r9, r17
 700241c:	30 52       	shl	16, r17
 700241e:	38 5e       	sar	24, r17
 7002420:	33 22       	mul	r19, r17
 7002422:	23 5e       	sar	3, r17
 7002424:	49 02       	mov	r9, r18
 7002426:	58 52       	shl	24, r18
 7002428:	58 5e       	sar	24, r18
 700242a:	54 22       	mul	r20, r18
 700242c:	43 5e       	sar	3, r18
 700242e:	32 06       	add	r18, r17
 7002430:	49 02       	mov	r9, r18
 7002432:	58 52       	shl	24, r18
 7002434:	58 5e       	sar	24, r18
 7002436:	52 3e       	not	r18, r18
 7002438:	52 a6 01 00 	addi	1, r18, r18
 700243c:	53 22       	mul	r19, r18
 700243e:	43 5e       	sar	3, r18
 7002440:	c9 02       	mov	r9, r22
 7002442:	d0 52       	shl	16, r22
 7002444:	d8 5e       	sar	24, r22
 7002446:	d4 22       	mul	r20, r22
 7002448:	c3 5e       	sar	3, r22
 700244a:	56 06       	add	r22, r18
 700244c:	71 02       	mov	r17, r19
 700244e:	92 02       	mov	r18, r20

07002450 <_skip_cam_rot_z>:
 7002450:	6d 06       	add	r13, r19
 7002452:	8e 06       	add	r14, r20
 7002454:	af 06       	add	r15, r21

07002456 <objUpdateVertex>:
 7002456:	62 de 00 00 	st.w	r19, 0[r2]
 700245a:	82 de 04 00 	st.w	r20, 4[r2]
 700245e:	a2 de 08 00 	st.w	r21, 8[r2]
 7002462:	39 a7 0c 00 	addi	12, r25, r25
 7002466:	42 a4 14 00 	addi	20, r2, r2
 700246a:	ff ab 64 fe 	jr	70022ce <_renderObjectTop>

0700246e <_verts_le_0>:
 700246e:	18 70       	ldsr	r0, chcw
 7002470:	e3 cf 30 00 	ld.w	48[sp],lp
 7002474:	43 cc 2c 00 	ld.w	44[sp],r2
 7002478:	83 ce 28 00 	ld.w	40[sp],r20
 700247c:	a3 ce 24 00 	ld.w	36[sp],r21
 7002480:	c3 ce 20 00 	ld.w	32[sp],r22
 7002484:	e3 ce 1c 00 	ld.w	28[sp],r23
 7002488:	03 cf 18 00 	ld.w	24[sp],r24
 700248c:	23 cf 14 00 	ld.w	20[sp],r25
 7002490:	43 cf 10 00 	ld.w	16[sp],r26
 7002494:	63 cf 0c 00 	ld.w	12[sp],r27
 7002498:	83 cf 08 00 	ld.w	8[sp],r28
 700249c:	a3 cf 04 00 	ld.w	4[sp],r29
 70024a0:	63 a4 34 00 	addi	52, sp, sp
 70024a4:	1f 18       	jmp	[lp]
	...

070024a8 <_g3d_detectCollision>:
 70024a8:	63 a4 d0 ff 	addi	-48, sp, sp
 70024ac:	c3 dc 30 00 	st.w	r6, 48[sp]
 70024b0:	e3 dc 34 00 	st.w	r7, 52[sp]
 70024b4:	03 dd 38 00 	st.w	r8, 56[sp]
 70024b8:	23 dd 3c 00 	st.w	r9, 60[sp]
 70024bc:	43 cd 30 00 	ld.w	48[sp],r10
 70024c0:	6a cd 00 00 	ld.w	0[r10],r11
 70024c4:	43 cd 34 00 	ld.w	52[sp],r10
 70024c8:	4a cd 00 00 	ld.w	0[r10],r10
 70024cc:	41 5d       	sar	1, r10
 70024ce:	8b 01       	mov	r11, r12
 70024d0:	8a 09       	sub	r10, r12
 70024d2:	4c 01       	mov	r12, r10
 70024d4:	43 dd 00 00 	st.w	r10, 0[sp]
 70024d8:	43 cd 30 00 	ld.w	48[sp],r10
 70024dc:	6a cd 00 00 	ld.w	0[r10],r11
 70024e0:	43 cd 34 00 	ld.w	52[sp],r10
 70024e4:	4a cd 00 00 	ld.w	0[r10],r10
 70024e8:	41 5d       	sar	1, r10
 70024ea:	4b 05       	add	r11, r10
 70024ec:	43 dd 04 00 	st.w	r10, 4[sp]
 70024f0:	43 cd 30 00 	ld.w	48[sp],r10
 70024f4:	6a cd 04 00 	ld.w	4[r10],r11
 70024f8:	43 cd 34 00 	ld.w	52[sp],r10
 70024fc:	4a cd 04 00 	ld.w	4[r10],r10
 7002500:	41 5d       	sar	1, r10
 7002502:	8b 01       	mov	r11, r12
 7002504:	8a 09       	sub	r10, r12
 7002506:	4c 01       	mov	r12, r10
 7002508:	43 dd 08 00 	st.w	r10, 8[sp]
 700250c:	43 cd 30 00 	ld.w	48[sp],r10
 7002510:	6a cd 04 00 	ld.w	4[r10],r11
 7002514:	43 cd 34 00 	ld.w	52[sp],r10
 7002518:	4a cd 04 00 	ld.w	4[r10],r10
 700251c:	41 5d       	sar	1, r10
 700251e:	4b 05       	add	r11, r10
 7002520:	43 dd 0c 00 	st.w	r10, 12[sp]
 7002524:	43 cd 30 00 	ld.w	48[sp],r10
 7002528:	6a cd 08 00 	ld.w	8[r10],r11
 700252c:	43 cd 34 00 	ld.w	52[sp],r10
 7002530:	4a cd 08 00 	ld.w	8[r10],r10
 7002534:	41 5d       	sar	1, r10
 7002536:	8b 01       	mov	r11, r12
 7002538:	8a 09       	sub	r10, r12
 700253a:	4c 01       	mov	r12, r10
 700253c:	43 dd 10 00 	st.w	r10, 16[sp]
 7002540:	43 cd 30 00 	ld.w	48[sp],r10
 7002544:	6a cd 08 00 	ld.w	8[r10],r11
 7002548:	43 cd 34 00 	ld.w	52[sp],r10
 700254c:	4a cd 08 00 	ld.w	8[r10],r10
 7002550:	41 5d       	sar	1, r10
 7002552:	4b 05       	add	r11, r10
 7002554:	43 dd 14 00 	st.w	r10, 20[sp]
 7002558:	43 cd 38 00 	ld.w	56[sp],r10
 700255c:	6a cd 00 00 	ld.w	0[r10],r11
 7002560:	43 cd 3c 00 	ld.w	60[sp],r10
 7002564:	4a cd 00 00 	ld.w	0[r10],r10
 7002568:	41 5d       	sar	1, r10
 700256a:	8b 01       	mov	r11, r12
 700256c:	8a 09       	sub	r10, r12
 700256e:	4c 01       	mov	r12, r10
 7002570:	43 dd 18 00 	st.w	r10, 24[sp]
 7002574:	43 cd 38 00 	ld.w	56[sp],r10
 7002578:	6a cd 00 00 	ld.w	0[r10],r11
 700257c:	43 cd 3c 00 	ld.w	60[sp],r10
 7002580:	4a cd 00 00 	ld.w	0[r10],r10
 7002584:	41 5d       	sar	1, r10
 7002586:	4b 05       	add	r11, r10
 7002588:	43 dd 1c 00 	st.w	r10, 28[sp]
 700258c:	43 cd 38 00 	ld.w	56[sp],r10
 7002590:	6a cd 04 00 	ld.w	4[r10],r11
 7002594:	43 cd 3c 00 	ld.w	60[sp],r10
 7002598:	4a cd 04 00 	ld.w	4[r10],r10
 700259c:	41 5d       	sar	1, r10
 700259e:	8b 01       	mov	r11, r12
 70025a0:	8a 09       	sub	r10, r12
 70025a2:	4c 01       	mov	r12, r10
 70025a4:	43 dd 20 00 	st.w	r10, 32[sp]
 70025a8:	43 cd 38 00 	ld.w	56[sp],r10
 70025ac:	6a cd 04 00 	ld.w	4[r10],r11
 70025b0:	43 cd 3c 00 	ld.w	60[sp],r10
 70025b4:	4a cd 04 00 	ld.w	4[r10],r10
 70025b8:	41 5d       	sar	1, r10
 70025ba:	4b 05       	add	r11, r10
 70025bc:	43 dd 24 00 	st.w	r10, 36[sp]
 70025c0:	43 cd 38 00 	ld.w	56[sp],r10
 70025c4:	6a cd 08 00 	ld.w	8[r10],r11
 70025c8:	43 cd 3c 00 	ld.w	60[sp],r10
 70025cc:	4a cd 08 00 	ld.w	8[r10],r10
 70025d0:	41 5d       	sar	1, r10
 70025d2:	8b 01       	mov	r11, r12
 70025d4:	8a 09       	sub	r10, r12
 70025d6:	4c 01       	mov	r12, r10
 70025d8:	43 dd 28 00 	st.w	r10, 40[sp]
 70025dc:	43 cd 38 00 	ld.w	56[sp],r10
 70025e0:	6a cd 08 00 	ld.w	8[r10],r11
 70025e4:	43 cd 3c 00 	ld.w	60[sp],r10
 70025e8:	4a cd 08 00 	ld.w	8[r10],r10
 70025ec:	41 5d       	sar	1, r10
 70025ee:	4b 05       	add	r11, r10
 70025f0:	43 dd 2c 00 	st.w	r10, 44[sp]
 70025f4:	63 cd 00 00 	ld.w	0[sp],r11
 70025f8:	43 cd 1c 00 	ld.w	28[sp],r10
 70025fc:	6a 0d       	cmp	r10, r11
 70025fe:	06 8e       	ble	7002604 <_g3d_detectCollision+0x15c>
 7002600:	00 a8 8a 01 	jr	700278a <compareC1toC2+0x106>
 7002604:	63 cd 08 00 	ld.w	8[sp],r11
 7002608:	43 cd 24 00 	ld.w	36[sp],r10
 700260c:	6a 0d       	cmp	r10, r11
 700260e:	06 8e       	ble	7002614 <_g3d_detectCollision+0x16c>
 7002610:	00 a8 7e 01 	jr	700278e <compareC1toC2+0x10a>
 7002614:	63 cd 10 00 	ld.w	16[sp],r11
 7002618:	43 cd 2c 00 	ld.w	44[sp],r10
 700261c:	6a 0d       	cmp	r10, r11
 700261e:	06 8e       	ble	7002624 <_g3d_detectCollision+0x17c>
 7002620:	00 a8 72 01 	jr	7002792 <compareC1toC2+0x10e>
 7002624:	63 cd 04 00 	ld.w	4[sp],r11
 7002628:	43 cd 18 00 	ld.w	24[sp],r10
 700262c:	6a 0d       	cmp	r10, r11
 700262e:	06 9c       	bge	7002634 <_g3d_detectCollision+0x18c>
 7002630:	00 a8 66 01 	jr	7002796 <compareC1toC2+0x112>
 7002634:	63 cd 0c 00 	ld.w	12[sp],r11
 7002638:	43 cd 20 00 	ld.w	32[sp],r10
 700263c:	6a 0d       	cmp	r10, r11
 700263e:	06 9c       	bge	7002644 <_g3d_detectCollision+0x19c>
 7002640:	00 a8 5a 01 	jr	700279a <compareC1toC2+0x116>
 7002644:	63 cd 14 00 	ld.w	20[sp],r11
 7002648:	43 cd 2c 00 	ld.w	44[sp],r10
 700264c:	6a 0d       	cmp	r10, r11
 700264e:	06 9c       	bge	7002654 <_g3d_detectCollision+0x1ac>
 7002650:	00 a8 4e 01 	jr	700279e <compareC1toC2+0x11a>
 7002654:	63 cd 00 00 	ld.w	0[sp],r11
 7002658:	43 cd 18 00 	ld.w	24[sp],r10
 700265c:	6a 0d       	cmp	r10, r11
 700265e:	0e 8c       	blt	700266c <_g3d_detectCollision+0x1c4>
 7002660:	63 cd 00 00 	ld.w	0[sp],r11
 7002664:	43 cd 1c 00 	ld.w	28[sp],r10
 7002668:	6a 0d       	cmp	r10, r11
 700266a:	1a 8e       	ble	7002684 <compareC1toC2>
 700266c:	63 cd 04 00 	ld.w	4[sp],r11
 7002670:	43 cd 18 00 	ld.w	24[sp],r10
 7002674:	6a 0d       	cmp	r10, r11
 7002676:	78 8c       	blt	70026ee <compareC1toC2+0x6a>
 7002678:	63 cd 04 00 	ld.w	4[sp],r11
 700267c:	43 cd 1c 00 	ld.w	28[sp],r10
 7002680:	6a 0d       	cmp	r10, r11
 7002682:	6c 9e       	bgt	70026ee <compareC1toC2+0x6a>

07002684 <compareC1toC2>:
 7002684:	63 cd 08 00 	ld.w	8[sp],r11
 7002688:	43 cd 20 00 	ld.w	32[sp],r10
 700268c:	6a 0d       	cmp	r10, r11
 700268e:	0e 8c       	blt	700269c <compareC1toC2+0x18>
 7002690:	63 cd 08 00 	ld.w	8[sp],r11
 7002694:	43 cd 24 00 	ld.w	36[sp],r10
 7002698:	6a 0d       	cmp	r10, r11
 700269a:	1a 8e       	ble	70026b4 <compareC1toC2+0x30>
 700269c:	63 cd 0c 00 	ld.w	12[sp],r11
 70026a0:	43 cd 20 00 	ld.w	32[sp],r10
 70026a4:	6a 0d       	cmp	r10, r11
 70026a6:	48 8c       	blt	70026ee <compareC1toC2+0x6a>
 70026a8:	63 cd 0c 00 	ld.w	12[sp],r11
 70026ac:	43 cd 24 00 	ld.w	36[sp],r10
 70026b0:	6a 0d       	cmp	r10, r11
 70026b2:	3c 9e       	bgt	70026ee <compareC1toC2+0x6a>
 70026b4:	63 cd 10 00 	ld.w	16[sp],r11
 70026b8:	43 cd 28 00 	ld.w	40[sp],r10
 70026bc:	6a 0d       	cmp	r10, r11
 70026be:	0e 8c       	blt	70026cc <compareC1toC2+0x48>
 70026c0:	63 cd 10 00 	ld.w	16[sp],r11
 70026c4:	43 cd 2c 00 	ld.w	44[sp],r10
 70026c8:	6a 0d       	cmp	r10, r11
 70026ca:	1a 8e       	ble	70026e4 <compareC1toC2+0x60>
 70026cc:	63 cd 14 00 	ld.w	20[sp],r11
 70026d0:	43 cd 28 00 	ld.w	40[sp],r10
 70026d4:	6a 0d       	cmp	r10, r11
 70026d6:	18 8c       	blt	70026ee <compareC1toC2+0x6a>
 70026d8:	63 cd 14 00 	ld.w	20[sp],r11
 70026dc:	43 cd 2c 00 	ld.w	44[sp],r10
 70026e0:	6a 0d       	cmp	r10, r11
 70026e2:	0c 9e       	bgt	70026ee <compareC1toC2+0x6a>
 70026e4:	43 cd 40 00 	ld.w	64[sp],r10
 70026e8:	61 41       	mov	1, r11
 70026ea:	6a dd 00 00 	st.w	r11, 0[r10]
 70026ee:	63 cd 18 00 	ld.w	24[sp],r11
 70026f2:	43 cd 00 00 	ld.w	0[sp],r10
 70026f6:	6a 0d       	cmp	r10, r11
 70026f8:	0e 8c       	blt	7002706 <compareC1toC2+0x82>
 70026fa:	63 cd 18 00 	ld.w	24[sp],r11
 70026fe:	43 cd 04 00 	ld.w	4[sp],r10
 7002702:	6a 0d       	cmp	r10, r11
 7002704:	1a 8e       	ble	700271e <compareC1toC2+0x9a>
 7002706:	63 cd 1c 00 	ld.w	28[sp],r11
 700270a:	43 cd 00 00 	ld.w	0[sp],r10
 700270e:	6a 0d       	cmp	r10, r11
 7002710:	90 8c       	blt	70027a0 <compareC1toC2+0x11c>
 7002712:	63 cd 1c 00 	ld.w	28[sp],r11
 7002716:	43 cd 04 00 	ld.w	4[sp],r10
 700271a:	6a 0d       	cmp	r10, r11
 700271c:	84 9e       	bgt	70027a0 <compareC1toC2+0x11c>
 700271e:	63 cd 20 00 	ld.w	32[sp],r11
 7002722:	43 cd 08 00 	ld.w	8[sp],r10
 7002726:	6a 0d       	cmp	r10, r11
 7002728:	0e 8c       	blt	7002736 <compareC1toC2+0xb2>
 700272a:	63 cd 20 00 	ld.w	32[sp],r11
 700272e:	43 cd 0c 00 	ld.w	12[sp],r10
 7002732:	6a 0d       	cmp	r10, r11
 7002734:	1a 8e       	ble	700274e <compareC1toC2+0xca>
 7002736:	63 cd 24 00 	ld.w	36[sp],r11
 700273a:	43 cd 08 00 	ld.w	8[sp],r10
 700273e:	6a 0d       	cmp	r10, r11
 7002740:	60 8c       	blt	70027a0 <compareC1toC2+0x11c>
 7002742:	63 cd 24 00 	ld.w	36[sp],r11
 7002746:	43 cd 0c 00 	ld.w	12[sp],r10
 700274a:	6a 0d       	cmp	r10, r11
 700274c:	54 9e       	bgt	70027a0 <compareC1toC2+0x11c>
 700274e:	63 cd 28 00 	ld.w	40[sp],r11
 7002752:	43 cd 10 00 	ld.w	16[sp],r10
 7002756:	6a 0d       	cmp	r10, r11
 7002758:	0e 8c       	blt	7002766 <compareC1toC2+0xe2>
 700275a:	63 cd 28 00 	ld.w	40[sp],r11
 700275e:	43 cd 14 00 	ld.w	20[sp],r10
 7002762:	6a 0d       	cmp	r10, r11
 7002764:	1a 8e       	ble	700277e <compareC1toC2+0xfa>
 7002766:	63 cd 2c 00 	ld.w	44[sp],r11
 700276a:	43 cd 10 00 	ld.w	16[sp],r10
 700276e:	6a 0d       	cmp	r10, r11
 7002770:	30 8c       	blt	70027a0 <compareC1toC2+0x11c>
 7002772:	63 cd 2c 00 	ld.w	44[sp],r11
 7002776:	43 cd 14 00 	ld.w	20[sp],r10
 700277a:	6a 0d       	cmp	r10, r11
 700277c:	24 9e       	bgt	70027a0 <compareC1toC2+0x11c>
 700277e:	43 cd 40 00 	ld.w	64[sp],r10
 7002782:	61 41       	mov	1, r11
 7002784:	6a dd 00 00 	st.w	r11, 0[r10]
 7002788:	18 8a       	br	70027a0 <compareC1toC2+0x11c>
 700278a:	00 9a       	nop	
 700278c:	14 8a       	br	70027a0 <compareC1toC2+0x11c>
 700278e:	00 9a       	nop	
 7002790:	10 8a       	br	70027a0 <compareC1toC2+0x11c>
 7002792:	00 9a       	nop	
 7002794:	0c 8a       	br	70027a0 <compareC1toC2+0x11c>
 7002796:	00 9a       	nop	
 7002798:	08 8a       	br	70027a0 <compareC1toC2+0x11c>
 700279a:	00 9a       	nop	
 700279c:	04 8a       	br	70027a0 <compareC1toC2+0x11c>
 700279e:	00 9a       	nop	
 70027a0:	63 a4 30 00 	addi	48, sp, sp
 70027a4:	1f 18       	jmp	[lp]
	...

070027a8 <_g3d_clipObject>:
 70027a8:	63 a4 c0 ff 	addi	-64, sp, sp
 70027ac:	e3 df 3c 00 	st.w	lp, 60[sp]
 70027b0:	c3 dc 40 00 	st.w	r6, 64[sp]
 70027b4:	43 cd 40 00 	ld.w	64[sp],r10
 70027b8:	4a cd 00 00 	ld.w	0[r10],r10
 70027bc:	43 dd 14 00 	st.w	r10, 20[sp]
 70027c0:	43 cd 40 00 	ld.w	64[sp],r10
 70027c4:	4a cd 04 00 	ld.w	4[r10],r10
 70027c8:	43 dd 18 00 	st.w	r10, 24[sp]
 70027cc:	43 cd 40 00 	ld.w	64[sp],r10
 70027d0:	4a cd 08 00 	ld.w	8[r10],r10
 70027d4:	43 dd 1c 00 	st.w	r10, 28[sp]
 70027d8:	40 bd 00 05 	movhi	1280, r0, r10
 70027dc:	4a a1 10 6b 	movea	27408, r10, r10
 70027e0:	aa cd 00 00 	ld.w	0[r10],r13
 70027e4:	40 bd 00 05 	movhi	1280, r0, r10
 70027e8:	4a a1 10 6b 	movea	27408, r10, r10
 70027ec:	8a cd 04 00 	ld.w	4[r10],r12
 70027f0:	40 bd 00 05 	movhi	1280, r0, r10
 70027f4:	4a a1 10 6b 	movea	27408, r10, r10
 70027f8:	6a cd 08 00 	ld.w	8[r10],r11
 70027fc:	43 a5 14 00 	addi	20, sp, r10
 7002800:	c3 a5 28 00 	addi	40, sp, r14
 7002804:	c3 dd 10 00 	st.w	r14, 16[sp]
 7002808:	cd 00       	mov	r13, r6
 700280a:	ec 00       	mov	r12, r7
 700280c:	0b 01       	mov	r11, r8
 700280e:	2a 01       	mov	r10, r9
 7002810:	40 bd 00 07 	movhi	1792, r0, r10
 7002814:	4a a1 44 1c 	movea	7236, r10, r10
 7002818:	00 ac 04 00 	jal	700281c <_g3d_clipObject+0x74>
 700281c:	e4 47       	add	4, lp
 700281e:	0a 18       	jmp	[r10]
 7002820:	63 a5 28 00 	addi	40, sp, r11
 7002824:	43 a5 14 00 	addi	20, sp, r10
 7002828:	cb 00       	mov	r11, r6
 700282a:	ea 00       	mov	r10, r7
 700282c:	40 bd 00 07 	movhi	1792, r0, r10
 7002830:	4a a1 6c 17 	movea	5996, r10, r10
 7002834:	00 ac 04 00 	jal	7002838 <_g3d_clipObject+0x90>
 7002838:	e4 47       	add	4, lp
 700283a:	0a 18       	jmp	[r10]
 700283c:	40 bd 00 05 	movhi	1280, r0, r10
 7002840:	4a a1 10 6b 	movea	27408, r10, r10
 7002844:	4a cd 64 00 	ld.w	100[r10],r10
 7002848:	40 0d       	cmp	r0, r10
 700284a:	22 94       	bne	700286c <_g3d_clipObject+0xc4>
 700284c:	40 bd 00 05 	movhi	1280, r0, r10
 7002850:	4a a1 10 6b 	movea	27408, r10, r10
 7002854:	4a cd 68 00 	ld.w	104[r10],r10
 7002858:	40 0d       	cmp	r0, r10
 700285a:	12 94       	bne	700286c <_g3d_clipObject+0xc4>
 700285c:	40 bd 00 05 	movhi	1280, r0, r10
 7002860:	4a a1 10 6b 	movea	27408, r10, r10
 7002864:	4a cd 6c 00 	ld.w	108[r10],r10
 7002868:	40 0d       	cmp	r0, r10
 700286a:	66 84       	be	70028d0 <_g3d_clipObject+0x128>
 700286c:	40 bd 00 05 	movhi	1280, r0, r10
 7002870:	4a a1 10 6b 	movea	27408, r10, r10
 7002874:	aa cd 64 00 	ld.w	100[r10],r13
 7002878:	40 bd 00 05 	movhi	1280, r0, r10
 700287c:	4a a1 10 6b 	movea	27408, r10, r10
 7002880:	8a cd 68 00 	ld.w	104[r10],r12
 7002884:	40 bd 00 05 	movhi	1280, r0, r10
 7002888:	4a a1 10 6b 	movea	27408, r10, r10
 700288c:	6a cd 6c 00 	ld.w	108[r10],r11
 7002890:	43 a5 14 00 	addi	20, sp, r10
 7002894:	c3 a5 28 00 	addi	40, sp, r14
 7002898:	c3 dd 10 00 	st.w	r14, 16[sp]
 700289c:	cd 00       	mov	r13, r6
 700289e:	ec 00       	mov	r12, r7
 70028a0:	0b 01       	mov	r11, r8
 70028a2:	2a 01       	mov	r10, r9
 70028a4:	40 bd 00 07 	movhi	1792, r0, r10
 70028a8:	4a a1 c8 1b 	movea	7112, r10, r10
 70028ac:	00 ac 04 00 	jal	70028b0 <_g3d_clipObject+0x108>
 70028b0:	e4 47       	add	4, lp
 70028b2:	0a 18       	jmp	[r10]
 70028b4:	63 a5 28 00 	addi	40, sp, r11
 70028b8:	43 a5 14 00 	addi	20, sp, r10
 70028bc:	cb 00       	mov	r11, r6
 70028be:	ea 00       	mov	r10, r7
 70028c0:	40 bd 00 07 	movhi	1792, r0, r10
 70028c4:	4a a1 6c 17 	movea	5996, r10, r10
 70028c8:	00 ac 04 00 	jal	70028cc <_g3d_clipObject+0x124>
 70028cc:	e4 47       	add	4, lp
 70028ce:	0a 18       	jmp	[r10]
 70028d0:	43 a5 14 00 	addi	20, sp, r10
 70028d4:	ca 00       	mov	r10, r6
 70028d6:	40 bd 00 07 	movhi	1792, r0, r10
 70028da:	4a a1 84 1e 	movea	7812, r10, r10
 70028de:	00 ac 04 00 	jal	70028e2 <_g3d_clipObject+0x13a>
 70028e2:	e4 47       	add	4, lp
 70028e4:	0a 18       	jmp	[r10]
 70028e6:	43 cd 40 00 	ld.w	64[sp],r10
 70028ea:	0a dc a4 00 	st.w	r0, 164[r10]
 70028ee:	43 cd 20 00 	ld.w	32[sp],r10
 70028f2:	40 0d       	cmp	r0, r10
 70028f4:	0e 8c       	blt	7002902 <_g3d_clipObject+0x15a>
 70028f6:	63 cd 20 00 	ld.w	32[sp],r11
 70028fa:	40 a1 40 01 	movea	320, r0, r10
 70028fe:	6a 0d       	cmp	r10, r11
 7002900:	0c 8e       	ble	700290c <_g3d_clipObject+0x164>
 7002902:	43 cd 40 00 	ld.w	64[sp],r10
 7002906:	61 41       	mov	1, r11
 7002908:	6a dd a4 00 	st.w	r11, 164[r10]
 700290c:	63 cd 24 00 	ld.w	36[sp],r11
 7002910:	40 a1 80 ff 	movea	-128, r0, r10
 7002914:	6a 0d       	cmp	r10, r11
 7002916:	0e 8c       	blt	7002924 <_g3d_clipObject+0x17c>
 7002918:	63 cd 24 00 	ld.w	36[sp],r11
 700291c:	40 a1 00 01 	movea	256, r0, r10
 7002920:	6a 0d       	cmp	r10, r11
 7002922:	0c 8e       	ble	700292e <_g3d_clipObject+0x186>
 7002924:	43 cd 40 00 	ld.w	64[sp],r10
 7002928:	61 41       	mov	1, r11
 700292a:	6a dd a4 00 	st.w	r11, 164[r10]
 700292e:	63 cd 1c 00 	ld.w	28[sp],r11
 7002932:	40 bd 00 05 	movhi	1280, r0, r10
 7002936:	4a a1 10 6b 	movea	27408, r10, r10
 700293a:	4a cd 8c 00 	ld.w	140[r10],r10
 700293e:	41 5d       	sar	1, r10
 7002940:	6a 0d       	cmp	r10, r11
 7002942:	0e 8c       	blt	7002950 <_g3d_clipObject+0x1a8>
 7002944:	63 cd 1c 00 	ld.w	28[sp],r11
 7002948:	40 bd 01 00 	movhi	1, r0, r10
 700294c:	6a 0d       	cmp	r10, r11
 700294e:	0c 8e       	ble	700295a <_g3d_clipObject+0x1b2>
 7002950:	43 cd 40 00 	ld.w	64[sp],r10
 7002954:	61 41       	mov	1, r11
 7002956:	6a dd a4 00 	st.w	r11, 164[r10]
 700295a:	e3 cf 3c 00 	ld.w	60[sp],lp
 700295e:	63 a4 40 00 	addi	64, sp, sp
 7002962:	1f 18       	jmp	[lp]

07002964 <_g3d_clipZAxis>:
 7002964:	63 a4 e4 ff 	addi	-28, sp, sp
 7002968:	c3 dc 1c 00 	st.w	r6, 28[sp]
 700296c:	e3 dc 20 00 	st.w	r7, 32[sp]
 7002970:	43 cd 1c 00 	ld.w	28[sp],r10
 7002974:	6a cd 08 00 	ld.w	8[r10],r11
 7002978:	40 bd 00 05 	movhi	1280, r0, r10
 700297c:	4a a1 10 6b 	movea	27408, r10, r10
 7002980:	4a cd 8c 00 	ld.w	140[r10],r10
 7002984:	6a 0d       	cmp	r10, r11
 7002986:	1e 8e       	ble	70029a4 <_g3d_clipZAxis+0x40>
 7002988:	43 cd 20 00 	ld.w	32[sp],r10
 700298c:	6a cd 08 00 	ld.w	8[r10],r11
 7002990:	40 bd 00 05 	movhi	1280, r0, r10
 7002994:	4a a1 10 6b 	movea	27408, r10, r10
 7002998:	4a cd 8c 00 	ld.w	140[r10],r10
 700299c:	6a 0d       	cmp	r10, r11
 700299e:	06 8e       	ble	70029a4 <_g3d_clipZAxis+0x40>
 70029a0:	00 a8 72 01 	jr	7002b12 <_g3d_clipZAxis+0x1ae>
 70029a4:	43 cd 1c 00 	ld.w	28[sp],r10
 70029a8:	6a cd 08 00 	ld.w	8[r10],r11
 70029ac:	40 bd 00 05 	movhi	1280, r0, r10
 70029b0:	4a a1 10 6b 	movea	27408, r10, r10
 70029b4:	4a cd 8c 00 	ld.w	140[r10],r10
 70029b8:	6a 0d       	cmp	r10, r11
 70029ba:	1e 9c       	bge	70029d8 <_g3d_clipZAxis+0x74>
 70029bc:	43 cd 20 00 	ld.w	32[sp],r10
 70029c0:	6a cd 08 00 	ld.w	8[r10],r11
 70029c4:	40 bd 00 05 	movhi	1280, r0, r10
 70029c8:	4a a1 10 6b 	movea	27408, r10, r10
 70029cc:	4a cd 8c 00 	ld.w	140[r10],r10
 70029d0:	6a 0d       	cmp	r10, r11
 70029d2:	06 9c       	bge	70029d8 <_g3d_clipZAxis+0x74>
 70029d4:	00 a8 42 01 	jr	7002b16 <_g3d_clipZAxis+0x1b2>
 70029d8:	43 cd 1c 00 	ld.w	28[sp],r10
 70029dc:	6a cd 08 00 	ld.w	8[r10],r11
 70029e0:	40 bd 00 05 	movhi	1280, r0, r10
 70029e4:	4a a1 10 6b 	movea	27408, r10, r10
 70029e8:	4a cd 8c 00 	ld.w	140[r10],r10
 70029ec:	6a 0d       	cmp	r10, r11
 70029ee:	14 9c       	bge	7002a02 <_g3d_clipZAxis+0x9e>
 70029f0:	43 cd 1c 00 	ld.w	28[sp],r10
 70029f4:	43 dd 14 00 	st.w	r10, 20[sp]
 70029f8:	43 cd 20 00 	ld.w	32[sp],r10
 70029fc:	43 dd 18 00 	st.w	r10, 24[sp]
 7002a00:	12 8a       	br	7002a12 <_g3d_clipZAxis+0xae>
 7002a02:	43 cd 20 00 	ld.w	32[sp],r10
 7002a06:	43 dd 14 00 	st.w	r10, 20[sp]
 7002a0a:	43 cd 1c 00 	ld.w	28[sp],r10
 7002a0e:	43 dd 18 00 	st.w	r10, 24[sp]
 7002a12:	43 cd 18 00 	ld.w	24[sp],r10
 7002a16:	6a cd 08 00 	ld.w	8[r10],r11
 7002a1a:	43 cd 14 00 	ld.w	20[sp],r10
 7002a1e:	4a cd 08 00 	ld.w	8[r10],r10
 7002a22:	8b 01       	mov	r11, r12
 7002a24:	8a 09       	sub	r10, r12
 7002a26:	4c 01       	mov	r12, r10
 7002a28:	44 5d       	sar	4, r10
 7002a2a:	43 dd 00 00 	st.w	r10, 0[sp]
 7002a2e:	43 cd 18 00 	ld.w	24[sp],r10
 7002a32:	6a cd 00 00 	ld.w	0[r10],r11
 7002a36:	43 cd 14 00 	ld.w	20[sp],r10
 7002a3a:	4a cd 00 00 	ld.w	0[r10],r10
 7002a3e:	8b 01       	mov	r11, r12
 7002a40:	8a 09       	sub	r10, r12
 7002a42:	4c 01       	mov	r12, r10
 7002a44:	44 5d       	sar	4, r10
 7002a46:	43 dd 04 00 	st.w	r10, 4[sp]
 7002a4a:	43 cd 18 00 	ld.w	24[sp],r10
 7002a4e:	6a cd 04 00 	ld.w	4[r10],r11
 7002a52:	43 cd 14 00 	ld.w	20[sp],r10
 7002a56:	4a cd 04 00 	ld.w	4[r10],r10
 7002a5a:	8b 01       	mov	r11, r12
 7002a5c:	8a 09       	sub	r10, r12
 7002a5e:	4c 01       	mov	r12, r10
 7002a60:	44 5d       	sar	4, r10
 7002a62:	43 dd 08 00 	st.w	r10, 8[sp]
 7002a66:	40 bd 00 05 	movhi	1280, r0, r10
 7002a6a:	4a a1 10 6b 	movea	27408, r10, r10
 7002a6e:	6a cd 8c 00 	ld.w	140[r10],r11
 7002a72:	43 cd 14 00 	ld.w	20[sp],r10
 7002a76:	4a cd 08 00 	ld.w	8[r10],r10
 7002a7a:	8b 01       	mov	r11, r12
 7002a7c:	8a 09       	sub	r10, r12
 7002a7e:	4c 01       	mov	r12, r10
 7002a80:	43 dd 0c 00 	st.w	r10, 12[sp]
 7002a84:	43 cd 00 00 	ld.w	0[sp],r10
 7002a88:	40 0d       	cmp	r0, r10
 7002a8a:	3a 8e       	ble	7002ac4 <_g3d_clipZAxis+0x160>
 7002a8c:	1e 8a       	br	7002aaa <_g3d_clipZAxis+0x146>
 7002a8e:	63 cd 0c 00 	ld.w	12[sp],r11
 7002a92:	43 cd 00 00 	ld.w	0[sp],r10
 7002a96:	8b 01       	mov	r11, r12
 7002a98:	8a 09       	sub	r10, r12
 7002a9a:	4c 01       	mov	r12, r10
 7002a9c:	43 dd 0c 00 	st.w	r10, 12[sp]
 7002aa0:	43 cd 10 00 	ld.w	16[sp],r10
 7002aa4:	41 45       	add	1, r10
 7002aa6:	43 dd 10 00 	st.w	r10, 16[sp]
 7002aaa:	43 cd 0c 00 	ld.w	12[sp],r10
 7002aae:	40 0d       	cmp	r0, r10
 7002ab0:	de 9f       	bgt	7002a8e <_g3d_clipZAxis+0x12a>
 7002ab2:	43 cd 10 00 	ld.w	16[sp],r10
 7002ab6:	40 0d       	cmp	r0, r10
 7002ab8:	0c 8e       	ble	7002ac4 <_g3d_clipZAxis+0x160>
 7002aba:	43 cd 10 00 	ld.w	16[sp],r10
 7002abe:	5f 45       	add	-1, r10
 7002ac0:	43 dd 10 00 	st.w	r10, 16[sp]
 7002ac4:	40 bd 00 05 	movhi	1280, r0, r10
 7002ac8:	4a a1 10 6b 	movea	27408, r10, r10
 7002acc:	6a cd 8c 00 	ld.w	140[r10],r11
 7002ad0:	43 cd 14 00 	ld.w	20[sp],r10
 7002ad4:	6a dd 08 00 	st.w	r11, 8[r10]
 7002ad8:	43 cd 14 00 	ld.w	20[sp],r10
 7002adc:	6a cd 00 00 	ld.w	0[r10],r11
 7002ae0:	83 cd 04 00 	ld.w	4[sp],r12
 7002ae4:	43 cd 10 00 	ld.w	16[sp],r10
 7002ae8:	4c 21       	mul	r12, r10
 7002aea:	6a 05       	add	r10, r11
 7002aec:	43 cd 14 00 	ld.w	20[sp],r10
 7002af0:	6a dd 00 00 	st.w	r11, 0[r10]
 7002af4:	43 cd 14 00 	ld.w	20[sp],r10
 7002af8:	6a cd 04 00 	ld.w	4[r10],r11
 7002afc:	83 cd 08 00 	ld.w	8[sp],r12
 7002b00:	43 cd 10 00 	ld.w	16[sp],r10
 7002b04:	4c 21       	mul	r12, r10
 7002b06:	6a 05       	add	r10, r11
 7002b08:	43 cd 14 00 	ld.w	20[sp],r10
 7002b0c:	6a dd 04 00 	st.w	r11, 4[r10]
 7002b10:	08 8a       	br	7002b18 <_g3d_clipZAxis+0x1b4>
 7002b12:	00 9a       	nop	
 7002b14:	04 8a       	br	7002b18 <_g3d_clipZAxis+0x1b4>
 7002b16:	00 9a       	nop	
 7002b18:	63 a4 1c 00 	addi	28, sp, sp
 7002b1c:	1f 18       	jmp	[lp]
	...

07002b20 <_drawPoint>:
 7002b20:	74 44       	add	-12, sp
 7002b22:	c3 dc 0c 00 	st.w	r6, 12[sp]
 7002b26:	e3 dc 10 00 	st.w	r7, 16[sp]
 7002b2a:	48 01       	mov	r8, r10
 7002b2c:	23 dd 18 00 	st.w	r9, 24[sp]
 7002b30:	43 d1 14 00 	st.b	r10, 20[sp]
 7002b34:	43 cd 10 00 	ld.w	16[sp],r10
 7002b38:	40 0d       	cmp	r0, r10
 7002b3a:	06 9c       	bge	7002b40 <_drawPoint+0x20>
 7002b3c:	00 a8 48 01 	jr	7002c84 <_drawPoint+0x164>
 7002b40:	63 cd 10 00 	ld.w	16[sp],r11
 7002b44:	40 a1 80 00 	movea	128, r0, r10
 7002b48:	6a 0d       	cmp	r10, r11
 7002b4a:	06 8e       	ble	7002b50 <_drawPoint+0x30>
 7002b4c:	00 a8 3c 01 	jr	7002c88 <_drawPoint+0x168>
 7002b50:	43 cd 0c 00 	ld.w	12[sp],r10
 7002b54:	40 0d       	cmp	r0, r10
 7002b56:	06 9c       	bge	7002b5c <_drawPoint+0x3c>
 7002b58:	00 a8 34 01 	jr	7002c8c <_drawPoint+0x16c>
 7002b5c:	63 cd 0c 00 	ld.w	12[sp],r11
 7002b60:	40 a1 40 01 	movea	320, r0, r10
 7002b64:	6a 0d       	cmp	r10, r11
 7002b66:	06 8e       	ble	7002b6c <_drawPoint+0x4c>
 7002b68:	00 a8 28 01 	jr	7002c90 <_drawPoint+0x170>
 7002b6c:	63 cd 18 00 	ld.w	24[sp],r11
 7002b70:	40 a1 14 00 	movea	20, r0, r10
 7002b74:	6a 0d       	cmp	r10, r11
 7002b76:	0a 8e       	ble	7002b80 <_drawPoint+0x60>
 7002b78:	40 a1 14 00 	movea	20, r0, r10
 7002b7c:	43 dd 18 00 	st.w	r10, 24[sp]
 7002b80:	63 cd 0c 00 	ld.w	12[sp],r11
 7002b84:	43 cd 18 00 	ld.w	24[sp],r10
 7002b88:	8b 01       	mov	r11, r12
 7002b8a:	8a 09       	sub	r10, r12
 7002b8c:	4c 01       	mov	r12, r10
 7002b8e:	6a 01       	mov	r10, r11
 7002b90:	64 51       	shl	4, r11
 7002b92:	43 cd 10 00 	ld.w	16[sp],r10
 7002b96:	44 5d       	sar	4, r10
 7002b98:	4b 05       	add	r11, r10
 7002b9a:	43 dd 00 00 	st.w	r10, 0[sp]
 7002b9e:	43 cd 18 00 	ld.w	24[sp],r10
 7002ba2:	6a 01       	mov	r10, r11
 7002ba4:	65 51       	shl	5, r11
 7002ba6:	43 cd 00 00 	ld.w	0[sp],r10
 7002baa:	4b 05       	add	r11, r10
 7002bac:	43 dd 04 00 	st.w	r10, 4[sp]
 7002bb0:	63 cd 00 00 	ld.w	0[sp],r11
 7002bb4:	40 a1 00 18 	movea	6144, r0, r10
 7002bb8:	6a 0d       	cmp	r10, r11
 7002bba:	da 9e       	bgt	7002c94 <_drawPoint+0x174>
 7002bbc:	43 cd 00 00 	ld.w	0[sp],r10
 7002bc0:	40 0d       	cmp	r0, r10
 7002bc2:	d6 8c       	blt	7002c98 <_drawPoint+0x178>
 7002bc4:	63 cd 04 00 	ld.w	4[sp],r11
 7002bc8:	40 a1 00 18 	movea	6144, r0, r10
 7002bcc:	6a 0d       	cmp	r10, r11
 7002bce:	ce 9e       	bgt	7002c9c <_drawPoint+0x17c>
 7002bd0:	43 cd 04 00 	ld.w	4[sp],r10
 7002bd4:	40 0d       	cmp	r0, r10
 7002bd6:	ca 8c       	blt	7002ca0 <_drawPoint+0x180>
 7002bd8:	43 c1 14 00 	ld.b	20[sp],r10
 7002bdc:	4a b5 03 00 	andi	3, r10, r10
 7002be0:	43 d1 14 00 	st.b	r10, 20[sp]
 7002be4:	43 cd 10 00 	ld.w	16[sp],r10
 7002be8:	4a b5 0f 00 	andi	15, r10, r10
 7002bec:	4a 05       	add	r10, r10
 7002bee:	43 d1 0b 00 	st.b	r10, 11[sp]
 7002bf2:	40 bd 00 05 	movhi	1280, r0, r10
 7002bf6:	4a a1 04 00 	movea	4, r10, r10
 7002bfa:	6a cd 00 00 	ld.w	0[r10],r11
 7002bfe:	43 cd 00 00 	ld.w	0[sp],r10
 7002c02:	42 51       	shl	2, r10
 7002c04:	6a 05       	add	r10, r11
 7002c06:	40 bd 00 05 	movhi	1280, r0, r10
 7002c0a:	4a a1 04 00 	movea	4, r10, r10
 7002c0e:	8a cd 00 00 	ld.w	0[r10],r12
 7002c12:	43 cd 00 00 	ld.w	0[sp],r10
 7002c16:	42 51       	shl	2, r10
 7002c18:	4c 05       	add	r12, r10
 7002c1a:	8a cd 00 00 	ld.w	0[r10],r12
 7002c1e:	43 c1 14 00 	ld.b	20[sp],r10
 7002c22:	4a b5 ff 00 	andi	255, r10, r10
 7002c26:	a3 c1 0b 00 	ld.b	11[sp],r13
 7002c2a:	ad b5 ff 00 	andi	255, r13, r13
 7002c2e:	4d 11       	shl	r13, r10
 7002c30:	4c 31       	or	r12, r10
 7002c32:	4b dd 00 00 	st.w	r10, 0[r11]
 7002c36:	40 bd 00 05 	movhi	1280, r0, r10
 7002c3a:	4a a1 04 00 	movea	4, r10, r10
 7002c3e:	6a cd 00 00 	ld.w	0[r10],r11
 7002c42:	43 cd 04 00 	ld.w	4[sp],r10
 7002c46:	4a a5 00 40 	addi	16384, r10, r10
 7002c4a:	42 51       	shl	2, r10
 7002c4c:	6a 05       	add	r10, r11
 7002c4e:	40 bd 00 05 	movhi	1280, r0, r10
 7002c52:	4a a1 04 00 	movea	4, r10, r10
 7002c56:	8a cd 00 00 	ld.w	0[r10],r12
 7002c5a:	43 cd 04 00 	ld.w	4[sp],r10
 7002c5e:	4a a5 00 40 	addi	16384, r10, r10
 7002c62:	42 51       	shl	2, r10
 7002c64:	4c 05       	add	r12, r10
 7002c66:	8a cd 00 00 	ld.w	0[r10],r12
 7002c6a:	43 c1 14 00 	ld.b	20[sp],r10
 7002c6e:	4a b5 ff 00 	andi	255, r10, r10
 7002c72:	a3 c1 0b 00 	ld.b	11[sp],r13
 7002c76:	ad b5 ff 00 	andi	255, r13, r13
 7002c7a:	4d 11       	shl	r13, r10
 7002c7c:	4c 31       	or	r12, r10
 7002c7e:	4b dd 00 00 	st.w	r10, 0[r11]
 7002c82:	20 8a       	br	7002ca2 <_drawPoint+0x182>
 7002c84:	00 9a       	nop	
 7002c86:	1c 8a       	br	7002ca2 <_drawPoint+0x182>
 7002c88:	00 9a       	nop	
 7002c8a:	18 8a       	br	7002ca2 <_drawPoint+0x182>
 7002c8c:	00 9a       	nop	
 7002c8e:	14 8a       	br	7002ca2 <_drawPoint+0x182>
 7002c90:	00 9a       	nop	
 7002c92:	10 8a       	br	7002ca2 <_drawPoint+0x182>
 7002c94:	00 9a       	nop	
 7002c96:	0c 8a       	br	7002ca2 <_drawPoint+0x182>
 7002c98:	00 9a       	nop	
 7002c9a:	08 8a       	br	7002ca2 <_drawPoint+0x182>
 7002c9c:	00 9a       	nop	
 7002c9e:	04 8a       	br	7002ca2 <_drawPoint+0x182>
 7002ca0:	00 9a       	nop	
 7002ca2:	6c 44       	add	12, sp
 7002ca4:	1f 18       	jmp	[lp]
	...

07002ca8 <_g3d_drawLine>:
 7002ca8:	63 a4 98 ff 	addi	-104, sp, sp
 7002cac:	e3 df 64 00 	st.w	lp, 100[sp]
 7002cb0:	a3 de 60 00 	st.w	r21, 96[sp]
 7002cb4:	c3 de 5c 00 	st.w	r22, 92[sp]
 7002cb8:	e3 de 58 00 	st.w	r23, 88[sp]
 7002cbc:	03 df 54 00 	st.w	r24, 84[sp]
 7002cc0:	23 df 50 00 	st.w	r25, 80[sp]
 7002cc4:	43 df 4c 00 	st.w	r26, 76[sp]
 7002cc8:	63 df 48 00 	st.w	r27, 72[sp]
 7002ccc:	83 df 44 00 	st.w	r28, 68[sp]
 7002cd0:	a3 df 40 00 	st.w	r29, 64[sp]
 7002cd4:	c3 dc 68 00 	st.w	r6, 104[sp]
 7002cd8:	e3 dc 6c 00 	st.w	r7, 108[sp]
 7002cdc:	48 01       	mov	r8, r10
 7002cde:	43 d1 70 00 	st.b	r10, 112[sp]
 7002ce2:	43 cd 68 00 	ld.w	104[sp],r10
 7002ce6:	4a cd 0c 00 	ld.w	12[r10],r10
 7002cea:	43 dd 34 00 	st.w	r10, 52[sp]
 7002cee:	43 cd 68 00 	ld.w	104[sp],r10
 7002cf2:	4a cd 10 00 	ld.w	16[r10],r10
 7002cf6:	43 dd 30 00 	st.w	r10, 48[sp]
 7002cfa:	43 cd 6c 00 	ld.w	108[sp],r10
 7002cfe:	4a cd 0c 00 	ld.w	12[r10],r10
 7002d02:	43 dd 38 00 	st.w	r10, 56[sp]
 7002d06:	43 cd 6c 00 	ld.w	108[sp],r10
 7002d0a:	4a cd 10 00 	ld.w	16[r10],r10
 7002d0e:	43 dd 3c 00 	st.w	r10, 60[sp]
 7002d12:	43 cd 34 00 	ld.w	52[sp],r10
 7002d16:	63 cd 38 00 	ld.w	56[sp],r11
 7002d1a:	8b 01       	mov	r11, r12
 7002d1c:	8a 09       	sub	r10, r12
 7002d1e:	4c 01       	mov	r12, r10
 7002d20:	43 dd 28 00 	st.w	r10, 40[sp]
 7002d24:	43 cd 30 00 	ld.w	48[sp],r10
 7002d28:	63 cd 3c 00 	ld.w	60[sp],r11
 7002d2c:	8b 01       	mov	r11, r12
 7002d2e:	8a 09       	sub	r10, r12
 7002d30:	4c 01       	mov	r12, r10
 7002d32:	43 dd 24 00 	st.w	r10, 36[sp]
 7002d36:	43 cd 68 00 	ld.w	104[sp],r10
 7002d3a:	6a cd 08 00 	ld.w	8[r10],r11
 7002d3e:	43 cd 6c 00 	ld.w	108[sp],r10
 7002d42:	4a cd 08 00 	ld.w	8[r10],r10
 7002d46:	8b 01       	mov	r11, r12
 7002d48:	8a 09       	sub	r10, r12
 7002d4a:	4c 01       	mov	r12, r10
 7002d4c:	43 5d       	sar	3, r10
 7002d4e:	41 45       	add	1, r10
 7002d50:	4a 3d       	not	r10, r10
 7002d52:	43 dd 20 00 	st.w	r10, 32[sp]
 7002d56:	43 cd 28 00 	ld.w	40[sp],r10
 7002d5a:	40 0d       	cmp	r0, r10
 7002d5c:	06 9c       	bge	7002d62 <_g3d_drawLine+0xba>
 7002d5e:	5f 41       	mov	-1, r10
 7002d60:	04 8a       	br	7002d64 <_g3d_drawLine+0xbc>
 7002d62:	41 41       	mov	1, r10
 7002d64:	43 dd 1c 00 	st.w	r10, 28[sp]
 7002d68:	43 cd 24 00 	ld.w	36[sp],r10
 7002d6c:	40 0d       	cmp	r0, r10
 7002d6e:	06 9c       	bge	7002d74 <_g3d_drawLine+0xcc>
 7002d70:	5f 41       	mov	-1, r10
 7002d72:	04 8a       	br	7002d76 <_g3d_drawLine+0xce>
 7002d74:	41 41       	mov	1, r10
 7002d76:	43 dd 18 00 	st.w	r10, 24[sp]
 7002d7a:	43 cd 20 00 	ld.w	32[sp],r10
 7002d7e:	40 0d       	cmp	r0, r10
 7002d80:	06 9c       	bge	7002d86 <_g3d_drawLine+0xde>
 7002d82:	5f 41       	mov	-1, r10
 7002d84:	04 8a       	br	7002d88 <_g3d_drawLine+0xe0>
 7002d86:	41 41       	mov	1, r10
 7002d88:	43 dd 14 00 	st.w	r10, 20[sp]
 7002d8c:	43 cd 28 00 	ld.w	40[sp],r10
 7002d90:	40 0d       	cmp	r0, r10
 7002d92:	0e 9c       	bge	7002da0 <_g3d_drawLine+0xf8>
 7002d94:	43 cd 28 00 	ld.w	40[sp],r10
 7002d98:	4a 3d       	not	r10, r10
 7002d9a:	41 45       	add	1, r10
 7002d9c:	43 dd 28 00 	st.w	r10, 40[sp]
 7002da0:	43 cd 24 00 	ld.w	36[sp],r10
 7002da4:	40 0d       	cmp	r0, r10
 7002da6:	0e 9c       	bge	7002db4 <_g3d_drawLine+0x10c>
 7002da8:	43 cd 24 00 	ld.w	36[sp],r10
 7002dac:	4a 3d       	not	r10, r10
 7002dae:	41 45       	add	1, r10
 7002db0:	43 dd 24 00 	st.w	r10, 36[sp]
 7002db4:	43 cd 20 00 	ld.w	32[sp],r10
 7002db8:	40 0d       	cmp	r0, r10
 7002dba:	0e 9c       	bge	7002dc8 <_g3d_drawLine+0x120>
 7002dbc:	43 cd 20 00 	ld.w	32[sp],r10
 7002dc0:	4a 3d       	not	r10, r10
 7002dc2:	41 45       	add	1, r10
 7002dc4:	43 dd 20 00 	st.w	r10, 32[sp]
 7002dc8:	43 cd 24 00 	ld.w	36[sp],r10
 7002dcc:	63 cd 28 00 	ld.w	40[sp],r11
 7002dd0:	4b 0d       	cmp	r11, r10
 7002dd2:	04 9c       	bge	7002dd6 <_g3d_drawLine+0x12e>
 7002dd4:	4b 01       	mov	r11, r10
 7002dd6:	41 45       	add	1, r10
 7002dd8:	43 dd 10 00 	st.w	r10, 16[sp]
 7002ddc:	43 cd 68 00 	ld.w	104[sp],r10
 7002de0:	4a cd 08 00 	ld.w	8[r10],r10
 7002de4:	43 dd 2c 00 	st.w	r10, 44[sp]
 7002de8:	e2 41       	mov	2, r15
 7002dea:	f8 71       	ldsr	r15, chcw
 7002dec:	40 bd 00 05 	movhi	1280, r0, r10
 7002df0:	ea a3 04 00 	movea	4, r10, lp
 7002df4:	c3 cc 24 00 	ld.w	36[sp],r6
 7002df8:	e3 cc 28 00 	ld.w	40[sp],r7
 7002dfc:	03 cd 0c 00 	ld.w	12[sp],r8
 7002e00:	23 cd 14 00 	ld.w	20[sp],r9
 7002e04:	43 cd 20 00 	ld.w	32[sp],r10
 7002e08:	63 cd 10 00 	ld.w	16[sp],r11
 7002e0c:	83 cd 30 00 	ld.w	48[sp],r12
 7002e10:	a3 cd 18 00 	ld.w	24[sp],r13
 7002e14:	c3 cd 2c 00 	ld.w	44[sp],r14
 7002e18:	e3 cd 34 00 	ld.w	52[sp],r15
 7002e1c:	03 ce 1c 00 	ld.w	28[sp],r16
 7002e20:	23 ce 08 00 	ld.w	8[sp],r17
 7002e24:	43 ce 04 00 	ld.w	4[sp],r18
 7002e28:	63 c2 03 00 	ld.b	3[sp],r19
 7002e2c:	a0 a2 80 00 	movea	128, r0, r21
 7002e30:	c0 a2 40 01 	movea	320, r0, r22
 7002e34:	e0 a2 14 00 	movea	20, r0, r23
 7002e38:	1f cf 00 00 	ld.w	0[lp],r24
 7002e3c:	20 a3 00 40 	movea	16384, r0, r25
 7002e40:	22 53       	shl	2, r25
 7002e42:	e6 0c       	cmp	r6, r7
 7002e44:	a4 8e       	ble	7002ee8 <_dxltdy>
 7002e46:	07 01       	mov	r7, r8
 7002e48:	01 5d       	sar	1, r8
 7002e4a:	87 03       	mov	r7, r28
 7002e4c:	e0 0c       	cmp	r0, r7
 7002e4e:	04 94       	bne	7002e52 <_nextLine1>
 7002e50:	81 43       	mov	1, r28

07002e52 <_nextLine1>:
 7002e52:	aa 03       	mov	r10, r29
 7002e54:	a3 53       	shl	3, r29
 7002e56:	bc 27       	div	r28, r29
 7002e58:	3d 21       	mul	r29, r9

07002e5a <_lineLoop1Top>:
 7002e5a:	60 0d       	cmp	r0, r11
 7002e5c:	8c 8e       	ble	7002ee8 <_dxltdy>
 7002e5e:	6b a5 ff ff 	addi	-1, r11, r11
 7002e62:	63 c3 70 00 	ld.b	112[sp],r27
 7002e66:	4e 03       	mov	r14, r26
 7002e68:	43 5f       	sar	3, r26
 7002e6a:	48 5f       	sar	8, r26
 7002e6c:	80 0d       	cmp	r0, r12
 7002e6e:	68 8c       	blt	7002ed6 <_endDrawPoint1>
 7002e70:	ac 0e       	cmp	r12, r21
 7002e72:	64 8c       	blt	7002ed6 <_endDrawPoint1>
 7002e74:	e0 0d       	cmp	r0, r15
 7002e76:	60 8c       	blt	7002ed6 <_endDrawPoint1>
 7002e78:	cf 0e       	cmp	r15, r22
 7002e7a:	5c 8c       	blt	7002ed6 <_endDrawPoint1>
 7002e7c:	fa 0e       	cmp	r26, r23
 7002e7e:	04 9e       	bgt	7002e82 <_nextPoint1>
 7002e80:	57 03       	mov	r23, r26

07002e82 <_nextPoint1>:
 7002e82:	2c 02       	mov	r12, r17
 7002e84:	24 5e       	sar	4, r17
 7002e86:	8f 03       	mov	r15, r28
 7002e88:	9a 0b       	sub	r26, r28
 7002e8a:	84 53       	shl	4, r28
 7002e8c:	3c 06       	add	r28, r17
 7002e8e:	5a 02       	mov	r26, r18
 7002e90:	45 52       	shl	5, r18
 7002e92:	51 06       	add	r17, r18
 7002e94:	80 a3 ff 17 	movea	6143, r0, r28
 7002e98:	3c 0e       	cmp	r28, r17
 7002e9a:	3c 9c       	bge	7002ed6 <_endDrawPoint1>
 7002e9c:	20 0e       	cmp	r0, r17
 7002e9e:	38 8c       	blt	7002ed6 <_endDrawPoint1>
 7002ea0:	5c 0e       	cmp	r28, r18
 7002ea2:	34 9c       	bge	7002ed6 <_endDrawPoint1>
 7002ea4:	40 0e       	cmp	r0, r18
 7002ea6:	30 8c       	blt	7002ed6 <_endDrawPoint1>
 7002ea8:	7b b7 03 00 	andi	3, r27, r27
 7002eac:	6c b6 0f 00 	andi	15, r12, r19
 7002eb0:	61 52       	shl	1, r19
 7002eb2:	91 03       	mov	r17, r28
 7002eb4:	82 53       	shl	2, r28
 7002eb6:	98 07       	add	r24, r28
 7002eb8:	bc cf 00 00 	ld.w	0[r28],r29
 7002ebc:	73 13       	shl	r19, r27
 7002ebe:	bb 33       	or	r27, r29
 7002ec0:	bc df 00 00 	st.w	r29, 0[r28]
 7002ec4:	92 03       	mov	r18, r28
 7002ec6:	82 53       	shl	2, r28
 7002ec8:	99 07       	add	r25, r28
 7002eca:	98 07       	add	r24, r28
 7002ecc:	bc cf 00 00 	ld.w	0[r28],r29
 7002ed0:	bb 33       	or	r27, r29
 7002ed2:	bc df 00 00 	st.w	r29, 0[r28]

07002ed6 <_endDrawPoint1>:
 7002ed6:	06 05       	add	r6, r8
 7002ed8:	e8 0c       	cmp	r8, r7
 7002eda:	06 9e       	bgt	7002ee0 <_nextLine2>
 7002edc:	8d 05       	add	r13, r12
 7002ede:	07 09       	sub	r7, r8

07002ee0 <_nextLine2>:
 7002ee0:	c9 05       	add	r9, r14
 7002ee2:	f0 05       	add	r16, r15
 7002ee4:	ff ab 76 ff 	jr	7002e5a <_lineLoop1Top>

07002ee8 <_dxltdy>:
 7002ee8:	06 01       	mov	r6, r8
 7002eea:	01 5d       	sar	1, r8
 7002eec:	86 03       	mov	r6, r28
 7002eee:	c0 0c       	cmp	r0, r6
 7002ef0:	04 94       	bne	7002ef4 <_nextLine3>
 7002ef2:	81 43       	mov	1, r28

07002ef4 <_nextLine3>:
 7002ef4:	aa 03       	mov	r10, r29
 7002ef6:	a3 53       	shl	3, r29
 7002ef8:	bc 27       	div	r28, r29
 7002efa:	3d 21       	mul	r29, r9

07002efc <_lineLoop2Top>:
 7002efc:	60 0d       	cmp	r0, r11
 7002efe:	90 8e       	ble	7002f8e <_end>
 7002f00:	6b a5 ff ff 	addi	-1, r11, r11
 7002f04:	63 c3 70 00 	ld.b	112[sp],r27
 7002f08:	4e 03       	mov	r14, r26
 7002f0a:	43 5f       	sar	3, r26
 7002f0c:	48 5f       	sar	8, r26
 7002f0e:	80 0d       	cmp	r0, r12
 7002f10:	6c 8c       	blt	7002f7c <_endDrawPoint2>
 7002f12:	ac 0e       	cmp	r12, r21
 7002f14:	68 8c       	blt	7002f7c <_endDrawPoint2>
 7002f16:	e0 0d       	cmp	r0, r15
 7002f18:	64 8c       	blt	7002f7c <_endDrawPoint2>
 7002f1a:	cf 0e       	cmp	r15, r22
 7002f1c:	60 8c       	blt	7002f7c <_endDrawPoint2>
 7002f1e:	fa 0e       	cmp	r26, r23
 7002f20:	04 9e       	bgt	7002f24 <_nextPoint2>
 7002f22:	57 03       	mov	r23, r26

07002f24 <_nextPoint2>:
 7002f24:	2c 02       	mov	r12, r17
 7002f26:	24 5e       	sar	4, r17
 7002f28:	8f 03       	mov	r15, r28
 7002f2a:	9a 0b       	sub	r26, r28
 7002f2c:	84 53       	shl	4, r28
 7002f2e:	3c 06       	add	r28, r17
 7002f30:	5a 02       	mov	r26, r18
 7002f32:	45 52       	shl	5, r18
 7002f34:	51 06       	add	r17, r18
 7002f36:	80 a3 00 18 	movea	6144, r0, r28
 7002f3a:	3c 0e       	cmp	r28, r17
 7002f3c:	40 9c       	bge	7002f7c <_endDrawPoint2>
 7002f3e:	20 0e       	cmp	r0, r17
 7002f40:	3c 8c       	blt	7002f7c <_endDrawPoint2>
 7002f42:	80 a3 00 18 	movea	6144, r0, r28
 7002f46:	5c 0e       	cmp	r28, r18
 7002f48:	34 9c       	bge	7002f7c <_endDrawPoint2>
 7002f4a:	40 0e       	cmp	r0, r18
 7002f4c:	30 8c       	blt	7002f7c <_endDrawPoint2>
 7002f4e:	7b b7 03 00 	andi	3, r27, r27
 7002f52:	6c b6 0f 00 	andi	15, r12, r19
 7002f56:	61 52       	shl	1, r19
 7002f58:	91 03       	mov	r17, r28
 7002f5a:	82 53       	shl	2, r28
 7002f5c:	98 07       	add	r24, r28
 7002f5e:	bc cf 00 00 	ld.w	0[r28],r29
 7002f62:	73 13       	shl	r19, r27
 7002f64:	bb 33       	or	r27, r29
 7002f66:	bc df 00 00 	st.w	r29, 0[r28]
 7002f6a:	92 03       	mov	r18, r28
 7002f6c:	82 53       	shl	2, r28
 7002f6e:	99 07       	add	r25, r28
 7002f70:	98 07       	add	r24, r28
 7002f72:	bc cf 00 00 	ld.w	0[r28],r29
 7002f76:	bb 33       	or	r27, r29
 7002f78:	bc df 00 00 	st.w	r29, 0[r28]

07002f7c <_endDrawPoint2>:
 7002f7c:	07 05       	add	r7, r8
 7002f7e:	c8 0c       	cmp	r8, r6
 7002f80:	06 9e       	bgt	7002f86 <_nextLine4>
 7002f82:	f0 05       	add	r16, r15
 7002f84:	06 09       	sub	r6, r8

07002f86 <_nextLine4>:
 7002f86:	c9 05       	add	r9, r14
 7002f88:	8d 05       	add	r13, r12
 7002f8a:	ff ab 72 ff 	jr	7002efc <_lineLoop2Top>

07002f8e <_end>:
 7002f8e:	18 70       	ldsr	r0, chcw
 7002f90:	e3 cf 64 00 	ld.w	100[sp],lp
 7002f94:	a3 ce 60 00 	ld.w	96[sp],r21
 7002f98:	c3 ce 5c 00 	ld.w	92[sp],r22
 7002f9c:	e3 ce 58 00 	ld.w	88[sp],r23
 7002fa0:	03 cf 54 00 	ld.w	84[sp],r24
 7002fa4:	23 cf 50 00 	ld.w	80[sp],r25
 7002fa8:	43 cf 4c 00 	ld.w	76[sp],r26
 7002fac:	63 cf 48 00 	ld.w	72[sp],r27
 7002fb0:	83 cf 44 00 	ld.w	68[sp],r28
 7002fb4:	a3 cf 40 00 	ld.w	64[sp],r29
 7002fb8:	63 a4 68 00 	addi	104, sp, sp
 7002fbc:	1f 18       	jmp	[lp]
	...

07002fc0 <_g3d_initObject>:
 7002fc0:	c3 dc 00 00 	st.w	r6, 0[sp]
 7002fc4:	e3 dc 04 00 	st.w	r7, 4[sp]
 7002fc8:	43 cd 00 00 	ld.w	0[sp],r10
 7002fcc:	0a dc 00 00 	st.w	r0, 0[r10]
 7002fd0:	43 cd 00 00 	ld.w	0[sp],r10
 7002fd4:	0a dc 04 00 	st.w	r0, 4[r10]
 7002fd8:	43 cd 00 00 	ld.w	0[sp],r10
 7002fdc:	0a dc 08 00 	st.w	r0, 8[r10]
 7002fe0:	43 cd 00 00 	ld.w	0[sp],r10
 7002fe4:	0a dc 14 00 	st.w	r0, 20[r10]
 7002fe8:	43 cd 00 00 	ld.w	0[sp],r10
 7002fec:	0a dc 18 00 	st.w	r0, 24[r10]
 7002ff0:	43 cd 00 00 	ld.w	0[sp],r10
 7002ff4:	0a dc 1c 00 	st.w	r0, 28[r10]
 7002ff8:	43 cd 00 00 	ld.w	0[sp],r10
 7002ffc:	0a dc 28 00 	st.w	r0, 40[r10]
 7003000:	43 cd 00 00 	ld.w	0[sp],r10
 7003004:	0a dc 2c 00 	st.w	r0, 44[r10]
 7003008:	43 cd 00 00 	ld.w	0[sp],r10
 700300c:	0a dc 30 00 	st.w	r0, 48[r10]
 7003010:	43 cd 00 00 	ld.w	0[sp],r10
 7003014:	0a dc 3c 00 	st.w	r0, 60[r10]
 7003018:	43 cd 00 00 	ld.w	0[sp],r10
 700301c:	0a dc 40 00 	st.w	r0, 64[r10]
 7003020:	43 cd 00 00 	ld.w	0[sp],r10
 7003024:	0a dc 44 00 	st.w	r0, 68[r10]
 7003028:	43 cd 00 00 	ld.w	0[sp],r10
 700302c:	0a dc 50 00 	st.w	r0, 80[r10]
 7003030:	43 cd 00 00 	ld.w	0[sp],r10
 7003034:	0a dc 54 00 	st.w	r0, 84[r10]
 7003038:	43 cd 00 00 	ld.w	0[sp],r10
 700303c:	0a dc 58 00 	st.w	r0, 88[r10]
 7003040:	43 cd 00 00 	ld.w	0[sp],r10
 7003044:	0a dc 64 00 	st.w	r0, 100[r10]
 7003048:	43 cd 00 00 	ld.w	0[sp],r10
 700304c:	0a dc 68 00 	st.w	r0, 104[r10]
 7003050:	43 cd 00 00 	ld.w	0[sp],r10
 7003054:	0a dc 6c 00 	st.w	r0, 108[r10]
 7003058:	43 cd 00 00 	ld.w	0[sp],r10
 700305c:	68 41       	mov	8, r11
 700305e:	6a dd 78 00 	st.w	r11, 120[r10]
 7003062:	43 cd 00 00 	ld.w	0[sp],r10
 7003066:	68 41       	mov	8, r11
 7003068:	6a dd 7c 00 	st.w	r11, 124[r10]
 700306c:	43 cd 00 00 	ld.w	0[sp],r10
 7003070:	68 41       	mov	8, r11
 7003072:	6a dd 80 00 	st.w	r11, 128[r10]
 7003076:	43 cd 00 00 	ld.w	0[sp],r10
 700307a:	0a dc 8c 00 	st.w	r0, 140[r10]
 700307e:	43 cd 00 00 	ld.w	0[sp],r10
 7003082:	0a dc 90 00 	st.w	r0, 144[r10]
 7003086:	43 cd 00 00 	ld.w	0[sp],r10
 700308a:	0a dc 94 00 	st.w	r0, 148[r10]
 700308e:	43 cd 00 00 	ld.w	0[sp],r10
 7003092:	0a dc c4 00 	st.w	r0, 196[r10]
 7003096:	43 cd 00 00 	ld.w	0[sp],r10
 700309a:	63 cd 04 00 	ld.w	4[sp],r11
 700309e:	6a dd c0 00 	st.w	r11, 192[r10]
 70030a2:	43 cd 00 00 	ld.w	0[sp],r10
 70030a6:	61 41       	mov	1, r11
 70030a8:	6a dd a0 00 	st.w	r11, 160[r10]
 70030ac:	43 cd 00 00 	ld.w	0[sp],r10
 70030b0:	0a dc a8 00 	st.w	r0, 168[r10]
 70030b4:	43 cd 00 00 	ld.w	0[sp],r10
 70030b8:	63 41       	mov	3, r11
 70030ba:	6a dd ac 00 	st.w	r11, 172[r10]
 70030be:	43 cd 00 00 	ld.w	0[sp],r10
 70030c2:	0a dc b0 00 	st.w	r0, 176[r10]
 70030c6:	1f 18       	jmp	[lp]

070030c8 <_g3d_moveObject>:
 70030c8:	c3 dc 00 00 	st.w	r6, 0[sp]
 70030cc:	43 cd 00 00 	ld.w	0[sp],r10
 70030d0:	4a cd 3c 00 	ld.w	60[r10],r10
 70030d4:	40 0d       	cmp	r0, r10
 70030d6:	1c 84       	be	70030f2 <_g3d_moveObject+0x2a>
 70030d8:	43 cd 00 00 	ld.w	0[sp],r10
 70030dc:	6a cd 28 00 	ld.w	40[r10],r11
 70030e0:	43 cd 00 00 	ld.w	0[sp],r10
 70030e4:	4a cd 3c 00 	ld.w	60[r10],r10
 70030e8:	6a 05       	add	r10, r11
 70030ea:	43 cd 00 00 	ld.w	0[sp],r10
 70030ee:	6a dd 28 00 	st.w	r11, 40[r10]
 70030f2:	43 cd 00 00 	ld.w	0[sp],r10
 70030f6:	4a cd 40 00 	ld.w	64[r10],r10
 70030fa:	40 0d       	cmp	r0, r10
 70030fc:	1c 84       	be	7003118 <_g3d_moveObject+0x50>
 70030fe:	43 cd 00 00 	ld.w	0[sp],r10
 7003102:	6a cd 2c 00 	ld.w	44[r10],r11
 7003106:	43 cd 00 00 	ld.w	0[sp],r10
 700310a:	4a cd 40 00 	ld.w	64[r10],r10
 700310e:	6a 05       	add	r10, r11
 7003110:	43 cd 00 00 	ld.w	0[sp],r10
 7003114:	6a dd 2c 00 	st.w	r11, 44[r10]
 7003118:	43 cd 00 00 	ld.w	0[sp],r10
 700311c:	4a cd 44 00 	ld.w	68[r10],r10
 7003120:	40 0d       	cmp	r0, r10
 7003122:	1c 84       	be	700313e <_g3d_moveObject+0x76>
 7003124:	43 cd 00 00 	ld.w	0[sp],r10
 7003128:	6a cd 30 00 	ld.w	48[r10],r11
 700312c:	43 cd 00 00 	ld.w	0[sp],r10
 7003130:	4a cd 44 00 	ld.w	68[r10],r10
 7003134:	6a 05       	add	r10, r11
 7003136:	43 cd 00 00 	ld.w	0[sp],r10
 700313a:	6a dd 30 00 	st.w	r11, 48[r10]
 700313e:	43 cd 00 00 	ld.w	0[sp],r10
 7003142:	4a cd 64 00 	ld.w	100[r10],r10
 7003146:	40 0d       	cmp	r0, r10
 7003148:	1c 84       	be	7003164 <_g3d_moveObject+0x9c>
 700314a:	43 cd 00 00 	ld.w	0[sp],r10
 700314e:	6a cd 50 00 	ld.w	80[r10],r11
 7003152:	43 cd 00 00 	ld.w	0[sp],r10
 7003156:	4a cd 64 00 	ld.w	100[r10],r10
 700315a:	6a 05       	add	r10, r11
 700315c:	43 cd 00 00 	ld.w	0[sp],r10
 7003160:	6a dd 50 00 	st.w	r11, 80[r10]
 7003164:	43 cd 00 00 	ld.w	0[sp],r10
 7003168:	4a cd 68 00 	ld.w	104[r10],r10
 700316c:	40 0d       	cmp	r0, r10
 700316e:	1c 84       	be	700318a <_g3d_moveObject+0xc2>
 7003170:	43 cd 00 00 	ld.w	0[sp],r10
 7003174:	6a cd 54 00 	ld.w	84[r10],r11
 7003178:	43 cd 00 00 	ld.w	0[sp],r10
 700317c:	4a cd 68 00 	ld.w	104[r10],r10
 7003180:	6a 05       	add	r10, r11
 7003182:	43 cd 00 00 	ld.w	0[sp],r10
 7003186:	6a dd 54 00 	st.w	r11, 84[r10]
 700318a:	43 cd 00 00 	ld.w	0[sp],r10
 700318e:	4a cd 6c 00 	ld.w	108[r10],r10
 7003192:	40 0d       	cmp	r0, r10
 7003194:	1c 84       	be	70031b0 <_g3d_moveObject+0xe8>
 7003196:	43 cd 00 00 	ld.w	0[sp],r10
 700319a:	6a cd 58 00 	ld.w	88[r10],r11
 700319e:	43 cd 00 00 	ld.w	0[sp],r10
 70031a2:	4a cd 6c 00 	ld.w	108[r10],r10
 70031a6:	6a 05       	add	r10, r11
 70031a8:	43 cd 00 00 	ld.w	0[sp],r10
 70031ac:	6a dd 58 00 	st.w	r11, 88[r10]
 70031b0:	43 cd 00 00 	ld.w	0[sp],r10
 70031b4:	4a cd 8c 00 	ld.w	140[r10],r10
 70031b8:	40 0d       	cmp	r0, r10
 70031ba:	1c 84       	be	70031d6 <_g3d_moveObject+0x10e>
 70031bc:	43 cd 00 00 	ld.w	0[sp],r10
 70031c0:	6a cd 78 00 	ld.w	120[r10],r11
 70031c4:	43 cd 00 00 	ld.w	0[sp],r10
 70031c8:	4a cd 8c 00 	ld.w	140[r10],r10
 70031cc:	6a 05       	add	r10, r11
 70031ce:	43 cd 00 00 	ld.w	0[sp],r10
 70031d2:	6a dd 78 00 	st.w	r11, 120[r10]
 70031d6:	43 cd 00 00 	ld.w	0[sp],r10
 70031da:	4a cd 90 00 	ld.w	144[r10],r10
 70031de:	40 0d       	cmp	r0, r10
 70031e0:	1c 84       	be	70031fc <_g3d_moveObject+0x134>
 70031e2:	43 cd 00 00 	ld.w	0[sp],r10
 70031e6:	6a cd 7c 00 	ld.w	124[r10],r11
 70031ea:	43 cd 00 00 	ld.w	0[sp],r10
 70031ee:	4a cd 90 00 	ld.w	144[r10],r10
 70031f2:	6a 05       	add	r10, r11
 70031f4:	43 cd 00 00 	ld.w	0[sp],r10
 70031f8:	6a dd 7c 00 	st.w	r11, 124[r10]
 70031fc:	43 cd 00 00 	ld.w	0[sp],r10
 7003200:	4a cd 94 00 	ld.w	148[r10],r10
 7003204:	40 0d       	cmp	r0, r10
 7003206:	34 84       	be	700323a <_g3d_moveObject+0x172>
 7003208:	43 cd 00 00 	ld.w	0[sp],r10
 700320c:	6a cd 80 00 	ld.w	128[r10],r11
 7003210:	43 cd 00 00 	ld.w	0[sp],r10
 7003214:	4a cd 94 00 	ld.w	148[r10],r10
 7003218:	6a 05       	add	r10, r11
 700321a:	43 cd 00 00 	ld.w	0[sp],r10
 700321e:	6a dd 80 00 	st.w	r11, 128[r10]
 7003222:	1a 8a       	br	700323c <_g3d_moveObject+0x174>
 7003224:	43 cd 00 00 	ld.w	0[sp],r10
 7003228:	4a cd 28 00 	ld.w	40[r10],r10
 700322c:	6a a5 98 fe 	addi	-360, r10, r11
 7003230:	43 cd 00 00 	ld.w	0[sp],r10
 7003234:	6a dd 28 00 	st.w	r11, 40[r10]
 7003238:	04 8a       	br	700323c <_g3d_moveObject+0x174>
 700323a:	00 9a       	nop	
 700323c:	43 cd 00 00 	ld.w	0[sp],r10
 7003240:	6a cd 28 00 	ld.w	40[r10],r11
 7003244:	40 a1 67 01 	movea	359, r0, r10
 7003248:	6a 0d       	cmp	r10, r11
 700324a:	da 9f       	bgt	7003224 <_g3d_moveObject+0x15c>
 700324c:	16 8a       	br	7003262 <_g3d_moveObject+0x19a>
 700324e:	43 cd 00 00 	ld.w	0[sp],r10
 7003252:	4a cd 2c 00 	ld.w	44[r10],r10
 7003256:	6a a5 98 fe 	addi	-360, r10, r11
 700325a:	43 cd 00 00 	ld.w	0[sp],r10
 700325e:	6a dd 2c 00 	st.w	r11, 44[r10]
 7003262:	43 cd 00 00 	ld.w	0[sp],r10
 7003266:	6a cd 2c 00 	ld.w	44[r10],r11
 700326a:	40 a1 67 01 	movea	359, r0, r10
 700326e:	6a 0d       	cmp	r10, r11
 7003270:	de 9f       	bgt	700324e <_g3d_moveObject+0x186>
 7003272:	16 8a       	br	7003288 <_g3d_moveObject+0x1c0>
 7003274:	43 cd 00 00 	ld.w	0[sp],r10
 7003278:	4a cd 30 00 	ld.w	48[r10],r10
 700327c:	6a a5 98 fe 	addi	-360, r10, r11
 7003280:	43 cd 00 00 	ld.w	0[sp],r10
 7003284:	6a dd 30 00 	st.w	r11, 48[r10]
 7003288:	43 cd 00 00 	ld.w	0[sp],r10
 700328c:	6a cd 30 00 	ld.w	48[r10],r11
 7003290:	40 a1 67 01 	movea	359, r0, r10
 7003294:	6a 0d       	cmp	r10, r11
 7003296:	de 9f       	bgt	7003274 <_g3d_moveObject+0x1ac>
 7003298:	16 8a       	br	70032ae <_g3d_moveObject+0x1e6>
 700329a:	43 cd 00 00 	ld.w	0[sp],r10
 700329e:	4a cd 28 00 	ld.w	40[r10],r10
 70032a2:	6a a5 68 01 	addi	360, r10, r11
 70032a6:	43 cd 00 00 	ld.w	0[sp],r10
 70032aa:	6a dd 28 00 	st.w	r11, 40[r10]
 70032ae:	43 cd 00 00 	ld.w	0[sp],r10
 70032b2:	6a cd 28 00 	ld.w	40[r10],r11
 70032b6:	40 a1 99 fe 	movea	-359, r0, r10
 70032ba:	6a 0d       	cmp	r10, r11
 70032bc:	de 8d       	blt	700329a <_g3d_moveObject+0x1d2>
 70032be:	16 8a       	br	70032d4 <_g3d_moveObject+0x20c>
 70032c0:	43 cd 00 00 	ld.w	0[sp],r10
 70032c4:	4a cd 2c 00 	ld.w	44[r10],r10
 70032c8:	6a a5 68 01 	addi	360, r10, r11
 70032cc:	43 cd 00 00 	ld.w	0[sp],r10
 70032d0:	6a dd 2c 00 	st.w	r11, 44[r10]
 70032d4:	43 cd 00 00 	ld.w	0[sp],r10
 70032d8:	6a cd 2c 00 	ld.w	44[r10],r11
 70032dc:	40 a1 99 fe 	movea	-359, r0, r10
 70032e0:	6a 0d       	cmp	r10, r11
 70032e2:	de 8d       	blt	70032c0 <_g3d_moveObject+0x1f8>
 70032e4:	16 8a       	br	70032fa <_g3d_moveObject+0x232>
 70032e6:	43 cd 00 00 	ld.w	0[sp],r10
 70032ea:	4a cd 30 00 	ld.w	48[r10],r10
 70032ee:	6a a5 68 01 	addi	360, r10, r11
 70032f2:	43 cd 00 00 	ld.w	0[sp],r10
 70032f6:	6a dd 30 00 	st.w	r11, 48[r10]
 70032fa:	43 cd 00 00 	ld.w	0[sp],r10
 70032fe:	6a cd 30 00 	ld.w	48[r10],r11
 7003302:	40 a1 99 fe 	movea	-359, r0, r10
 7003306:	6a 0d       	cmp	r10, r11
 7003308:	de 8d       	blt	70032e6 <_g3d_moveObject+0x21e>
 700330a:	43 cd 00 00 	ld.w	0[sp],r10
 700330e:	6a cd 14 00 	ld.w	20[r10],r11
 7003312:	43 cd 00 00 	ld.w	0[sp],r10
 7003316:	4a cd 00 00 	ld.w	0[r10],r10
 700331a:	6a 0d       	cmp	r10, r11
 700331c:	98 84       	be	70033b4 <_g3d_moveObject+0x2ec>
 700331e:	43 cd 00 00 	ld.w	0[sp],r10
 7003322:	6a cd 00 00 	ld.w	0[r10],r11
 7003326:	43 cd 00 00 	ld.w	0[sp],r10
 700332a:	4a cd 14 00 	ld.w	20[r10],r10
 700332e:	6a 0d       	cmp	r10, r11
 7003330:	42 9c       	bge	7003372 <_g3d_moveObject+0x2aa>
 7003332:	43 cd 00 00 	ld.w	0[sp],r10
 7003336:	6a cd 00 00 	ld.w	0[r10],r11
 700333a:	43 cd 00 00 	ld.w	0[sp],r10
 700333e:	4a cd 50 00 	ld.w	80[r10],r10
 7003342:	6a 05       	add	r10, r11
 7003344:	43 cd 00 00 	ld.w	0[sp],r10
 7003348:	6a dd 00 00 	st.w	r11, 0[r10]
 700334c:	43 cd 00 00 	ld.w	0[sp],r10
 7003350:	6a cd 00 00 	ld.w	0[r10],r11
 7003354:	43 cd 00 00 	ld.w	0[sp],r10
 7003358:	4a cd 14 00 	ld.w	20[r10],r10
 700335c:	6a 0d       	cmp	r10, r11
 700335e:	54 8e       	ble	70033b2 <_g3d_moveObject+0x2ea>
 7003360:	43 cd 00 00 	ld.w	0[sp],r10
 7003364:	6a cd 14 00 	ld.w	20[r10],r11
 7003368:	43 cd 00 00 	ld.w	0[sp],r10
 700336c:	6a dd 00 00 	st.w	r11, 0[r10]
 7003370:	44 8a       	br	70033b4 <_g3d_moveObject+0x2ec>
 7003372:	43 cd 00 00 	ld.w	0[sp],r10
 7003376:	6a cd 00 00 	ld.w	0[r10],r11
 700337a:	43 cd 00 00 	ld.w	0[sp],r10
 700337e:	4a cd 50 00 	ld.w	80[r10],r10
 7003382:	6a 09       	sub	r10, r11
 7003384:	43 cd 00 00 	ld.w	0[sp],r10
 7003388:	6a dd 00 00 	st.w	r11, 0[r10]
 700338c:	43 cd 00 00 	ld.w	0[sp],r10
 7003390:	6a cd 00 00 	ld.w	0[r10],r11
 7003394:	43 cd 00 00 	ld.w	0[sp],r10
 7003398:	4a cd 14 00 	ld.w	20[r10],r10
 700339c:	6a 0d       	cmp	r10, r11
 700339e:	16 9c       	bge	70033b4 <_g3d_moveObject+0x2ec>
 70033a0:	43 cd 00 00 	ld.w	0[sp],r10
 70033a4:	6a cd 14 00 	ld.w	20[r10],r11
 70033a8:	43 cd 00 00 	ld.w	0[sp],r10
 70033ac:	6a dd 00 00 	st.w	r11, 0[r10]
 70033b0:	04 8a       	br	70033b4 <_g3d_moveObject+0x2ec>
 70033b2:	00 9a       	nop	
 70033b4:	43 cd 00 00 	ld.w	0[sp],r10
 70033b8:	6a cd 18 00 	ld.w	24[r10],r11
 70033bc:	43 cd 00 00 	ld.w	0[sp],r10
 70033c0:	4a cd 04 00 	ld.w	4[r10],r10
 70033c4:	6a 0d       	cmp	r10, r11
 70033c6:	98 84       	be	700345e <_g3d_moveObject+0x396>
 70033c8:	43 cd 00 00 	ld.w	0[sp],r10
 70033cc:	6a cd 04 00 	ld.w	4[r10],r11
 70033d0:	43 cd 00 00 	ld.w	0[sp],r10
 70033d4:	4a cd 18 00 	ld.w	24[r10],r10
 70033d8:	6a 0d       	cmp	r10, r11
 70033da:	42 9c       	bge	700341c <_g3d_moveObject+0x354>
 70033dc:	43 cd 00 00 	ld.w	0[sp],r10
 70033e0:	6a cd 04 00 	ld.w	4[r10],r11
 70033e4:	43 cd 00 00 	ld.w	0[sp],r10
 70033e8:	4a cd 54 00 	ld.w	84[r10],r10
 70033ec:	6a 05       	add	r10, r11
 70033ee:	43 cd 00 00 	ld.w	0[sp],r10
 70033f2:	6a dd 04 00 	st.w	r11, 4[r10]
 70033f6:	43 cd 00 00 	ld.w	0[sp],r10
 70033fa:	6a cd 04 00 	ld.w	4[r10],r11
 70033fe:	43 cd 00 00 	ld.w	0[sp],r10
 7003402:	4a cd 18 00 	ld.w	24[r10],r10
 7003406:	6a 0d       	cmp	r10, r11
 7003408:	54 8e       	ble	700345c <_g3d_moveObject+0x394>
 700340a:	43 cd 00 00 	ld.w	0[sp],r10
 700340e:	6a cd 18 00 	ld.w	24[r10],r11
 7003412:	43 cd 00 00 	ld.w	0[sp],r10
 7003416:	6a dd 04 00 	st.w	r11, 4[r10]
 700341a:	44 8a       	br	700345e <_g3d_moveObject+0x396>
 700341c:	43 cd 00 00 	ld.w	0[sp],r10
 7003420:	6a cd 04 00 	ld.w	4[r10],r11
 7003424:	43 cd 00 00 	ld.w	0[sp],r10
 7003428:	4a cd 54 00 	ld.w	84[r10],r10
 700342c:	6a 09       	sub	r10, r11
 700342e:	43 cd 00 00 	ld.w	0[sp],r10
 7003432:	6a dd 04 00 	st.w	r11, 4[r10]
 7003436:	43 cd 00 00 	ld.w	0[sp],r10
 700343a:	6a cd 04 00 	ld.w	4[r10],r11
 700343e:	43 cd 00 00 	ld.w	0[sp],r10
 7003442:	4a cd 18 00 	ld.w	24[r10],r10
 7003446:	6a 0d       	cmp	r10, r11
 7003448:	16 9c       	bge	700345e <_g3d_moveObject+0x396>
 700344a:	43 cd 00 00 	ld.w	0[sp],r10
 700344e:	6a cd 18 00 	ld.w	24[r10],r11
 7003452:	43 cd 00 00 	ld.w	0[sp],r10
 7003456:	6a dd 04 00 	st.w	r11, 4[r10]
 700345a:	04 8a       	br	700345e <_g3d_moveObject+0x396>
 700345c:	00 9a       	nop	
 700345e:	43 cd 00 00 	ld.w	0[sp],r10
 7003462:	6a cd 1c 00 	ld.w	28[r10],r11
 7003466:	43 cd 00 00 	ld.w	0[sp],r10
 700346a:	4a cd 08 00 	ld.w	8[r10],r10
 700346e:	6a 0d       	cmp	r10, r11
 7003470:	98 84       	be	7003508 <_g3d_moveObject+0x440>
 7003472:	43 cd 00 00 	ld.w	0[sp],r10
 7003476:	6a cd 08 00 	ld.w	8[r10],r11
 700347a:	43 cd 00 00 	ld.w	0[sp],r10
 700347e:	4a cd 1c 00 	ld.w	28[r10],r10
 7003482:	6a 0d       	cmp	r10, r11
 7003484:	42 9c       	bge	70034c6 <_g3d_moveObject+0x3fe>
 7003486:	43 cd 00 00 	ld.w	0[sp],r10
 700348a:	6a cd 08 00 	ld.w	8[r10],r11
 700348e:	43 cd 00 00 	ld.w	0[sp],r10
 7003492:	4a cd 58 00 	ld.w	88[r10],r10
 7003496:	6a 05       	add	r10, r11
 7003498:	43 cd 00 00 	ld.w	0[sp],r10
 700349c:	6a dd 08 00 	st.w	r11, 8[r10]
 70034a0:	43 cd 00 00 	ld.w	0[sp],r10
 70034a4:	6a cd 08 00 	ld.w	8[r10],r11
 70034a8:	43 cd 00 00 	ld.w	0[sp],r10
 70034ac:	4a cd 1c 00 	ld.w	28[r10],r10
 70034b0:	6a 0d       	cmp	r10, r11
 70034b2:	54 8e       	ble	7003506 <_g3d_moveObject+0x43e>
 70034b4:	43 cd 00 00 	ld.w	0[sp],r10
 70034b8:	6a cd 1c 00 	ld.w	28[r10],r11
 70034bc:	43 cd 00 00 	ld.w	0[sp],r10
 70034c0:	6a dd 08 00 	st.w	r11, 8[r10]
 70034c4:	44 8a       	br	7003508 <_g3d_moveObject+0x440>
 70034c6:	43 cd 00 00 	ld.w	0[sp],r10
 70034ca:	6a cd 08 00 	ld.w	8[r10],r11
 70034ce:	43 cd 00 00 	ld.w	0[sp],r10
 70034d2:	4a cd 58 00 	ld.w	88[r10],r10
 70034d6:	6a 09       	sub	r10, r11
 70034d8:	43 cd 00 00 	ld.w	0[sp],r10
 70034dc:	6a dd 08 00 	st.w	r11, 8[r10]
 70034e0:	43 cd 00 00 	ld.w	0[sp],r10
 70034e4:	6a cd 08 00 	ld.w	8[r10],r11
 70034e8:	43 cd 00 00 	ld.w	0[sp],r10
 70034ec:	4a cd 1c 00 	ld.w	28[r10],r10
 70034f0:	6a 0d       	cmp	r10, r11
 70034f2:	16 9c       	bge	7003508 <_g3d_moveObject+0x440>
 70034f4:	43 cd 00 00 	ld.w	0[sp],r10
 70034f8:	6a cd 1c 00 	ld.w	28[r10],r11
 70034fc:	43 cd 00 00 	ld.w	0[sp],r10
 7003500:	6a dd 08 00 	st.w	r11, 8[r10]
 7003504:	04 8a       	br	7003508 <_g3d_moveObject+0x440>
 7003506:	00 9a       	nop	
 7003508:	1f 18       	jmp	[lp]
	...

0700350c <_g3d_moveCamera>:
 700350c:	c3 dc 00 00 	st.w	r6, 0[sp]
 7003510:	43 cd 00 00 	ld.w	0[sp],r10
 7003514:	4a cd 78 00 	ld.w	120[r10],r10
 7003518:	40 0d       	cmp	r0, r10
 700351a:	1c 84       	be	7003536 <_g3d_moveCamera+0x2a>
 700351c:	43 cd 00 00 	ld.w	0[sp],r10
 7003520:	6a cd 64 00 	ld.w	100[r10],r11
 7003524:	43 cd 00 00 	ld.w	0[sp],r10
 7003528:	4a cd 78 00 	ld.w	120[r10],r10
 700352c:	6a 05       	add	r10, r11
 700352e:	43 cd 00 00 	ld.w	0[sp],r10
 7003532:	6a dd 64 00 	st.w	r11, 100[r10]
 7003536:	43 cd 00 00 	ld.w	0[sp],r10
 700353a:	4a cd 7c 00 	ld.w	124[r10],r10
 700353e:	40 0d       	cmp	r0, r10
 7003540:	1c 84       	be	700355c <_g3d_moveCamera+0x50>
 7003542:	43 cd 00 00 	ld.w	0[sp],r10
 7003546:	6a cd 68 00 	ld.w	104[r10],r11
 700354a:	43 cd 00 00 	ld.w	0[sp],r10
 700354e:	4a cd 7c 00 	ld.w	124[r10],r10
 7003552:	6a 05       	add	r10, r11
 7003554:	43 cd 00 00 	ld.w	0[sp],r10
 7003558:	6a dd 68 00 	st.w	r11, 104[r10]
 700355c:	43 cd 00 00 	ld.w	0[sp],r10
 7003560:	4a cd 80 00 	ld.w	128[r10],r10
 7003564:	40 0d       	cmp	r0, r10
 7003566:	1c 84       	be	7003582 <_g3d_moveCamera+0x76>
 7003568:	43 cd 00 00 	ld.w	0[sp],r10
 700356c:	6a cd 6c 00 	ld.w	108[r10],r11
 7003570:	43 cd 00 00 	ld.w	0[sp],r10
 7003574:	4a cd 80 00 	ld.w	128[r10],r10
 7003578:	6a 05       	add	r10, r11
 700357a:	43 cd 00 00 	ld.w	0[sp],r10
 700357e:	6a dd 6c 00 	st.w	r11, 108[r10]
 7003582:	43 cd 00 00 	ld.w	0[sp],r10
 7003586:	4a cd 28 00 	ld.w	40[r10],r10
 700358a:	40 0d       	cmp	r0, r10
 700358c:	1c 84       	be	70035a8 <_g3d_moveCamera+0x9c>
 700358e:	43 cd 00 00 	ld.w	0[sp],r10
 7003592:	6a cd 14 00 	ld.w	20[r10],r11
 7003596:	43 cd 00 00 	ld.w	0[sp],r10
 700359a:	4a cd 28 00 	ld.w	40[r10],r10
 700359e:	6a 05       	add	r10, r11
 70035a0:	43 cd 00 00 	ld.w	0[sp],r10
 70035a4:	6a dd 14 00 	st.w	r11, 20[r10]
 70035a8:	43 cd 00 00 	ld.w	0[sp],r10
 70035ac:	4a cd 2c 00 	ld.w	44[r10],r10
 70035b0:	40 0d       	cmp	r0, r10
 70035b2:	1c 84       	be	70035ce <_g3d_moveCamera+0xc2>
 70035b4:	43 cd 00 00 	ld.w	0[sp],r10
 70035b8:	6a cd 18 00 	ld.w	24[r10],r11
 70035bc:	43 cd 00 00 	ld.w	0[sp],r10
 70035c0:	4a cd 2c 00 	ld.w	44[r10],r10
 70035c4:	6a 05       	add	r10, r11
 70035c6:	43 cd 00 00 	ld.w	0[sp],r10
 70035ca:	6a dd 18 00 	st.w	r11, 24[r10]
 70035ce:	43 cd 00 00 	ld.w	0[sp],r10
 70035d2:	4a cd 30 00 	ld.w	48[r10],r10
 70035d6:	40 0d       	cmp	r0, r10
 70035d8:	34 84       	be	700360c <_g3d_moveCamera+0x100>
 70035da:	43 cd 00 00 	ld.w	0[sp],r10
 70035de:	6a cd 1c 00 	ld.w	28[r10],r11
 70035e2:	43 cd 00 00 	ld.w	0[sp],r10
 70035e6:	4a cd 30 00 	ld.w	48[r10],r10
 70035ea:	6a 05       	add	r10, r11
 70035ec:	43 cd 00 00 	ld.w	0[sp],r10
 70035f0:	6a dd 1c 00 	st.w	r11, 28[r10]
 70035f4:	1a 8a       	br	700360e <_g3d_moveCamera+0x102>
 70035f6:	43 cd 00 00 	ld.w	0[sp],r10
 70035fa:	4a cd 64 00 	ld.w	100[r10],r10
 70035fe:	6a a5 98 fe 	addi	-360, r10, r11
 7003602:	43 cd 00 00 	ld.w	0[sp],r10
 7003606:	6a dd 64 00 	st.w	r11, 100[r10]
 700360a:	04 8a       	br	700360e <_g3d_moveCamera+0x102>
 700360c:	00 9a       	nop	
 700360e:	43 cd 00 00 	ld.w	0[sp],r10
 7003612:	6a cd 64 00 	ld.w	100[r10],r11
 7003616:	40 a1 67 01 	movea	359, r0, r10
 700361a:	6a 0d       	cmp	r10, r11
 700361c:	da 9f       	bgt	70035f6 <_g3d_moveCamera+0xea>
 700361e:	16 8a       	br	7003634 <_g3d_moveCamera+0x128>
 7003620:	43 cd 00 00 	ld.w	0[sp],r10
 7003624:	4a cd 68 00 	ld.w	104[r10],r10
 7003628:	6a a5 98 fe 	addi	-360, r10, r11
 700362c:	43 cd 00 00 	ld.w	0[sp],r10
 7003630:	6a dd 68 00 	st.w	r11, 104[r10]
 7003634:	43 cd 00 00 	ld.w	0[sp],r10
 7003638:	6a cd 68 00 	ld.w	104[r10],r11
 700363c:	40 a1 67 01 	movea	359, r0, r10
 7003640:	6a 0d       	cmp	r10, r11
 7003642:	de 9f       	bgt	7003620 <_g3d_moveCamera+0x114>
 7003644:	16 8a       	br	700365a <_g3d_moveCamera+0x14e>
 7003646:	43 cd 00 00 	ld.w	0[sp],r10
 700364a:	4a cd 6c 00 	ld.w	108[r10],r10
 700364e:	6a a5 98 fe 	addi	-360, r10, r11
 7003652:	43 cd 00 00 	ld.w	0[sp],r10
 7003656:	6a dd 6c 00 	st.w	r11, 108[r10]
 700365a:	43 cd 00 00 	ld.w	0[sp],r10
 700365e:	6a cd 6c 00 	ld.w	108[r10],r11
 7003662:	40 a1 67 01 	movea	359, r0, r10
 7003666:	6a 0d       	cmp	r10, r11
 7003668:	de 9f       	bgt	7003646 <_g3d_moveCamera+0x13a>
 700366a:	16 8a       	br	7003680 <_g3d_moveCamera+0x174>
 700366c:	43 cd 00 00 	ld.w	0[sp],r10
 7003670:	4a cd 64 00 	ld.w	100[r10],r10
 7003674:	6a a5 68 01 	addi	360, r10, r11
 7003678:	43 cd 00 00 	ld.w	0[sp],r10
 700367c:	6a dd 64 00 	st.w	r11, 100[r10]
 7003680:	43 cd 00 00 	ld.w	0[sp],r10
 7003684:	6a cd 64 00 	ld.w	100[r10],r11
 7003688:	40 a1 99 fe 	movea	-359, r0, r10
 700368c:	6a 0d       	cmp	r10, r11
 700368e:	de 8d       	blt	700366c <_g3d_moveCamera+0x160>
 7003690:	16 8a       	br	70036a6 <_g3d_moveCamera+0x19a>
 7003692:	43 cd 00 00 	ld.w	0[sp],r10
 7003696:	4a cd 68 00 	ld.w	104[r10],r10
 700369a:	6a a5 68 01 	addi	360, r10, r11
 700369e:	43 cd 00 00 	ld.w	0[sp],r10
 70036a2:	6a dd 68 00 	st.w	r11, 104[r10]
 70036a6:	43 cd 00 00 	ld.w	0[sp],r10
 70036aa:	6a cd 68 00 	ld.w	104[r10],r11
 70036ae:	40 a1 99 fe 	movea	-359, r0, r10
 70036b2:	6a 0d       	cmp	r10, r11
 70036b4:	de 8d       	blt	7003692 <_g3d_moveCamera+0x186>
 70036b6:	16 8a       	br	70036cc <_g3d_moveCamera+0x1c0>
 70036b8:	43 cd 00 00 	ld.w	0[sp],r10
 70036bc:	4a cd 6c 00 	ld.w	108[r10],r10
 70036c0:	6a a5 68 01 	addi	360, r10, r11
 70036c4:	43 cd 00 00 	ld.w	0[sp],r10
 70036c8:	6a dd 6c 00 	st.w	r11, 108[r10]
 70036cc:	43 cd 00 00 	ld.w	0[sp],r10
 70036d0:	6a cd 6c 00 	ld.w	108[r10],r11
 70036d4:	40 a1 99 fe 	movea	-359, r0, r10
 70036d8:	6a 0d       	cmp	r10, r11
 70036da:	de 8d       	blt	70036b8 <_g3d_moveCamera+0x1ac>
 70036dc:	43 cd 00 00 	ld.w	0[sp],r10
 70036e0:	6a cd 3c 00 	ld.w	60[r10],r11
 70036e4:	43 cd 00 00 	ld.w	0[sp],r10
 70036e8:	4a cd 00 00 	ld.w	0[r10],r10
 70036ec:	6a 0d       	cmp	r10, r11
 70036ee:	98 84       	be	7003786 <_g3d_moveCamera+0x27a>
 70036f0:	43 cd 00 00 	ld.w	0[sp],r10
 70036f4:	6a cd 00 00 	ld.w	0[r10],r11
 70036f8:	43 cd 00 00 	ld.w	0[sp],r10
 70036fc:	4a cd 3c 00 	ld.w	60[r10],r10
 7003700:	6a 0d       	cmp	r10, r11
 7003702:	42 9c       	bge	7003744 <_g3d_moveCamera+0x238>
 7003704:	43 cd 00 00 	ld.w	0[sp],r10
 7003708:	6a cd 00 00 	ld.w	0[r10],r11
 700370c:	43 cd 00 00 	ld.w	0[sp],r10
 7003710:	4a cd 14 00 	ld.w	20[r10],r10
 7003714:	6a 05       	add	r10, r11
 7003716:	43 cd 00 00 	ld.w	0[sp],r10
 700371a:	6a dd 00 00 	st.w	r11, 0[r10]
 700371e:	43 cd 00 00 	ld.w	0[sp],r10
 7003722:	6a cd 00 00 	ld.w	0[r10],r11
 7003726:	43 cd 00 00 	ld.w	0[sp],r10
 700372a:	4a cd 3c 00 	ld.w	60[r10],r10
 700372e:	6a 0d       	cmp	r10, r11
 7003730:	54 8e       	ble	7003784 <_g3d_moveCamera+0x278>
 7003732:	43 cd 00 00 	ld.w	0[sp],r10
 7003736:	6a cd 3c 00 	ld.w	60[r10],r11
 700373a:	43 cd 00 00 	ld.w	0[sp],r10
 700373e:	6a dd 00 00 	st.w	r11, 0[r10]
 7003742:	44 8a       	br	7003786 <_g3d_moveCamera+0x27a>
 7003744:	43 cd 00 00 	ld.w	0[sp],r10
 7003748:	6a cd 00 00 	ld.w	0[r10],r11
 700374c:	43 cd 00 00 	ld.w	0[sp],r10
 7003750:	4a cd 14 00 	ld.w	20[r10],r10
 7003754:	6a 09       	sub	r10, r11
 7003756:	43 cd 00 00 	ld.w	0[sp],r10
 700375a:	6a dd 00 00 	st.w	r11, 0[r10]
 700375e:	43 cd 00 00 	ld.w	0[sp],r10
 7003762:	6a cd 00 00 	ld.w	0[r10],r11
 7003766:	43 cd 00 00 	ld.w	0[sp],r10
 700376a:	4a cd 3c 00 	ld.w	60[r10],r10
 700376e:	6a 0d       	cmp	r10, r11
 7003770:	16 9c       	bge	7003786 <_g3d_moveCamera+0x27a>
 7003772:	43 cd 00 00 	ld.w	0[sp],r10
 7003776:	6a cd 3c 00 	ld.w	60[r10],r11
 700377a:	43 cd 00 00 	ld.w	0[sp],r10
 700377e:	6a dd 00 00 	st.w	r11, 0[r10]
 7003782:	04 8a       	br	7003786 <_g3d_moveCamera+0x27a>
 7003784:	00 9a       	nop	
 7003786:	43 cd 00 00 	ld.w	0[sp],r10
 700378a:	6a cd 40 00 	ld.w	64[r10],r11
 700378e:	43 cd 00 00 	ld.w	0[sp],r10
 7003792:	4a cd 04 00 	ld.w	4[r10],r10
 7003796:	6a 0d       	cmp	r10, r11
 7003798:	98 84       	be	7003830 <_g3d_moveCamera+0x324>
 700379a:	43 cd 00 00 	ld.w	0[sp],r10
 700379e:	6a cd 04 00 	ld.w	4[r10],r11
 70037a2:	43 cd 00 00 	ld.w	0[sp],r10
 70037a6:	4a cd 40 00 	ld.w	64[r10],r10
 70037aa:	6a 0d       	cmp	r10, r11
 70037ac:	42 9c       	bge	70037ee <_g3d_moveCamera+0x2e2>
 70037ae:	43 cd 00 00 	ld.w	0[sp],r10
 70037b2:	6a cd 04 00 	ld.w	4[r10],r11
 70037b6:	43 cd 00 00 	ld.w	0[sp],r10
 70037ba:	4a cd 18 00 	ld.w	24[r10],r10
 70037be:	6a 05       	add	r10, r11
 70037c0:	43 cd 00 00 	ld.w	0[sp],r10
 70037c4:	6a dd 04 00 	st.w	r11, 4[r10]
 70037c8:	43 cd 00 00 	ld.w	0[sp],r10
 70037cc:	6a cd 04 00 	ld.w	4[r10],r11
 70037d0:	43 cd 00 00 	ld.w	0[sp],r10
 70037d4:	4a cd 40 00 	ld.w	64[r10],r10
 70037d8:	6a 0d       	cmp	r10, r11
 70037da:	54 8e       	ble	700382e <_g3d_moveCamera+0x322>
 70037dc:	43 cd 00 00 	ld.w	0[sp],r10
 70037e0:	6a cd 40 00 	ld.w	64[r10],r11
 70037e4:	43 cd 00 00 	ld.w	0[sp],r10
 70037e8:	6a dd 04 00 	st.w	r11, 4[r10]
 70037ec:	44 8a       	br	7003830 <_g3d_moveCamera+0x324>
 70037ee:	43 cd 00 00 	ld.w	0[sp],r10
 70037f2:	6a cd 04 00 	ld.w	4[r10],r11
 70037f6:	43 cd 00 00 	ld.w	0[sp],r10
 70037fa:	4a cd 18 00 	ld.w	24[r10],r10
 70037fe:	6a 09       	sub	r10, r11
 7003800:	43 cd 00 00 	ld.w	0[sp],r10
 7003804:	6a dd 04 00 	st.w	r11, 4[r10]
 7003808:	43 cd 00 00 	ld.w	0[sp],r10
 700380c:	6a cd 04 00 	ld.w	4[r10],r11
 7003810:	43 cd 00 00 	ld.w	0[sp],r10
 7003814:	4a cd 40 00 	ld.w	64[r10],r10
 7003818:	6a 0d       	cmp	r10, r11
 700381a:	16 9c       	bge	7003830 <_g3d_moveCamera+0x324>
 700381c:	43 cd 00 00 	ld.w	0[sp],r10
 7003820:	6a cd 40 00 	ld.w	64[r10],r11
 7003824:	43 cd 00 00 	ld.w	0[sp],r10
 7003828:	6a dd 04 00 	st.w	r11, 4[r10]
 700382c:	04 8a       	br	7003830 <_g3d_moveCamera+0x324>
 700382e:	00 9a       	nop	
 7003830:	43 cd 00 00 	ld.w	0[sp],r10
 7003834:	6a cd 44 00 	ld.w	68[r10],r11
 7003838:	43 cd 00 00 	ld.w	0[sp],r10
 700383c:	4a cd 08 00 	ld.w	8[r10],r10
 7003840:	6a 0d       	cmp	r10, r11
 7003842:	98 84       	be	70038da <_g3d_moveCamera+0x3ce>
 7003844:	43 cd 00 00 	ld.w	0[sp],r10
 7003848:	6a cd 08 00 	ld.w	8[r10],r11
 700384c:	43 cd 00 00 	ld.w	0[sp],r10
 7003850:	4a cd 44 00 	ld.w	68[r10],r10
 7003854:	6a 0d       	cmp	r10, r11
 7003856:	42 9c       	bge	7003898 <_g3d_moveCamera+0x38c>
 7003858:	43 cd 00 00 	ld.w	0[sp],r10
 700385c:	6a cd 08 00 	ld.w	8[r10],r11
 7003860:	43 cd 00 00 	ld.w	0[sp],r10
 7003864:	4a cd 1c 00 	ld.w	28[r10],r10
 7003868:	6a 05       	add	r10, r11
 700386a:	43 cd 00 00 	ld.w	0[sp],r10
 700386e:	6a dd 08 00 	st.w	r11, 8[r10]
 7003872:	43 cd 00 00 	ld.w	0[sp],r10
 7003876:	6a cd 08 00 	ld.w	8[r10],r11
 700387a:	43 cd 00 00 	ld.w	0[sp],r10
 700387e:	4a cd 44 00 	ld.w	68[r10],r10
 7003882:	6a 0d       	cmp	r10, r11
 7003884:	54 8e       	ble	70038d8 <_g3d_moveCamera+0x3cc>
 7003886:	43 cd 00 00 	ld.w	0[sp],r10
 700388a:	6a cd 44 00 	ld.w	68[r10],r11
 700388e:	43 cd 00 00 	ld.w	0[sp],r10
 7003892:	6a dd 08 00 	st.w	r11, 8[r10]
 7003896:	44 8a       	br	70038da <_g3d_moveCamera+0x3ce>
 7003898:	43 cd 00 00 	ld.w	0[sp],r10
 700389c:	6a cd 08 00 	ld.w	8[r10],r11
 70038a0:	43 cd 00 00 	ld.w	0[sp],r10
 70038a4:	4a cd 1c 00 	ld.w	28[r10],r10
 70038a8:	6a 09       	sub	r10, r11
 70038aa:	43 cd 00 00 	ld.w	0[sp],r10
 70038ae:	6a dd 08 00 	st.w	r11, 8[r10]
 70038b2:	43 cd 00 00 	ld.w	0[sp],r10
 70038b6:	6a cd 08 00 	ld.w	8[r10],r11
 70038ba:	43 cd 00 00 	ld.w	0[sp],r10
 70038be:	4a cd 44 00 	ld.w	68[r10],r10
 70038c2:	6a 0d       	cmp	r10, r11
 70038c4:	16 9c       	bge	70038da <_g3d_moveCamera+0x3ce>
 70038c6:	43 cd 00 00 	ld.w	0[sp],r10
 70038ca:	6a cd 44 00 	ld.w	68[r10],r11
 70038ce:	43 cd 00 00 	ld.w	0[sp],r10
 70038d2:	6a dd 08 00 	st.w	r11, 8[r10]
 70038d6:	04 8a       	br	70038da <_g3d_moveCamera+0x3ce>
 70038d8:	00 9a       	nop	
 70038da:	1f 18       	jmp	[lp]

070038dc <_main>:
 70038dc:	63 a4 48 fe 	addi	-440, sp, sp
 70038e0:	e3 df b4 01 	st.w	lp, 436[sp]
 70038e4:	41 41       	mov	1, r10
 70038e6:	43 d1 b3 01 	st.b	r10, 435[sp]
 70038ea:	40 bd 00 07 	movhi	1792, r0, r10
 70038ee:	4a a1 d0 64 	movea	25808, r10, r10
 70038f2:	00 ac 04 00 	jal	70038f6 <_main+0x1a>
 70038f6:	e4 47       	add	4, lp
 70038f8:	0a 18       	jmp	[r10]
 70038fa:	40 bd 00 07 	movhi	1792, r0, r10
 70038fe:	4a a1 20 64 	movea	25632, r10, r10
 7003902:	00 ac 04 00 	jal	7003906 <_main+0x2a>
 7003906:	e4 47       	add	4, lp
 7003908:	0a 18       	jmp	[r10]
 700390a:	40 bd 00 05 	movhi	1280, r0, r10
 700390e:	4a a1 10 6b 	movea	27408, r10, r10
 7003912:	60 a1 40 1f 	movea	8000, r0, r11
 7003916:	6a dd 04 00 	st.w	r11, 4[r10]
 700391a:	40 bd 00 05 	movhi	1280, r0, r10
 700391e:	4a a1 10 6b 	movea	27408, r10, r10
 7003922:	6a cd 08 00 	ld.w	8[r10],r11
 7003926:	40 bd 00 05 	movhi	1280, r0, r10
 700392a:	4a a1 10 6b 	movea	27408, r10, r10
 700392e:	6a dd 44 00 	st.w	r11, 68[r10]
 7003932:	40 bd 00 05 	movhi	1280, r0, r10
 7003936:	4a a1 10 6b 	movea	27408, r10, r10
 700393a:	6a cd 04 00 	ld.w	4[r10],r11
 700393e:	40 bd 00 05 	movhi	1280, r0, r10
 7003942:	4a a1 10 6b 	movea	27408, r10, r10
 7003946:	6a dd 40 00 	st.w	r11, 64[r10]
 700394a:	40 bd 00 05 	movhi	1280, r0, r10
 700394e:	4a a1 10 6b 	movea	27408, r10, r10
 7003952:	6a cd 00 00 	ld.w	0[r10],r11
 7003956:	40 bd 00 05 	movhi	1280, r0, r10
 700395a:	4a a1 10 6b 	movea	27408, r10, r10
 700395e:	6a dd 3c 00 	st.w	r11, 60[r10]
 7003962:	40 bd 00 07 	movhi	1792, r0, r10
 7003966:	4a a1 b0 46 	movea	18096, r10, r10
 700396a:	00 ac 04 00 	jal	700396e <_main+0x92>
 700396e:	e4 47       	add	4, lp
 7003970:	0a 18       	jmp	[r10]
 7003972:	40 bd 00 07 	movhi	1792, r0, r10
 7003976:	4a a1 28 0c 	movea	3112, r10, r10
 700397a:	00 ac 04 00 	jal	700397e <_main+0xa2>
 700397e:	e4 47       	add	4, lp
 7003980:	0a 18       	jmp	[r10]
 7003982:	6a b5 ff ff 	andi	65535, r10, r11
 7003986:	40 bd 00 05 	movhi	1280, r0, r10
 700398a:	4a a1 c8 00 	movea	200, r10, r10
 700398e:	6a d5 00 00 	st.h	r11, 0[r10]
 7003992:	40 bd 00 05 	movhi	1280, r0, r10
 7003996:	4a a1 c8 00 	movea	200, r10, r10
 700399a:	4a c5 00 00 	ld.h	0[r10],r10
 700399e:	4a b5 ff ff 	andi	65535, r10, r10
 70039a2:	4a b5 04 00 	andi	4, r10, r10
 70039a6:	40 0d       	cmp	r0, r10
 70039a8:	ca 95       	bne	7003972 <_main+0x96>
 70039aa:	40 bd 00 07 	movhi	1792, r0, r10
 70039ae:	4a a1 8c 49 	movea	18828, r10, r10
 70039b2:	00 ac 04 00 	jal	70039b6 <_main+0xda>
 70039b6:	e4 47       	add	4, lp
 70039b8:	0a 18       	jmp	[r10]
 70039ba:	40 bd 00 07 	movhi	1792, r0, r10
 70039be:	4a a1 28 0c 	movea	3112, r10, r10
 70039c2:	00 ac 04 00 	jal	70039c6 <_main+0xea>
 70039c6:	e4 47       	add	4, lp
 70039c8:	0a 18       	jmp	[r10]
 70039ca:	6a b5 ff ff 	andi	65535, r10, r11
 70039ce:	40 bd 00 05 	movhi	1280, r0, r10
 70039d2:	4a a1 c8 00 	movea	200, r10, r10
 70039d6:	6a d5 00 00 	st.h	r11, 0[r10]
 70039da:	40 bd 00 05 	movhi	1280, r0, r10
 70039de:	4a a1 c8 00 	movea	200, r10, r10
 70039e2:	4a c5 00 00 	ld.h	0[r10],r10
 70039e6:	4a b5 ff ff 	andi	65535, r10, r10
 70039ea:	4a b5 04 00 	andi	4, r10, r10
 70039ee:	40 0d       	cmp	r0, r10
 70039f0:	ca 95       	bne	70039ba <_main+0xde>
 70039f2:	40 bd 00 05 	movhi	1280, r0, r10
 70039f6:	4a a1 cc 00 	movea	204, r10, r10
 70039fa:	60 bd 00 07 	movhi	1792, r0, r11
 70039fe:	6b a1 24 78 	movea	30756, r11, r11
 7003a02:	6a dd 00 00 	st.w	r11, 0[r10]
 7003a06:	43 a5 e0 00 	addi	224, sp, r10
 7003a0a:	ca 00       	mov	r10, r6
 7003a0c:	40 bd 00 07 	movhi	1792, r0, r10
 7003a10:	ea a0 d8 78 	movea	30936, r10, r7
 7003a14:	40 bd 00 07 	movhi	1792, r0, r10
 7003a18:	4a a1 c0 2f 	movea	12224, r10, r10
 7003a1c:	00 ac 04 00 	jal	7003a20 <_main+0x144>
 7003a20:	e4 47       	add	4, lp
 7003a22:	0a 18       	jmp	[r10]
 7003a24:	43 a5 18 00 	addi	24, sp, r10
 7003a28:	ca 00       	mov	r10, r6
 7003a2a:	40 bd 00 07 	movhi	1792, r0, r10
 7003a2e:	ea a0 64 7f 	movea	32612, r10, r7
 7003a32:	40 bd 00 07 	movhi	1792, r0, r10
 7003a36:	4a a1 c0 2f 	movea	12224, r10, r10
 7003a3a:	00 ac 04 00 	jal	7003a3e <_main+0x162>
 7003a3e:	e4 47       	add	4, lp
 7003a40:	0a 18       	jmp	[r10]
 7003a42:	40 bd 00 07 	movhi	1792, r0, r10
 7003a46:	4a a1 38 4b 	movea	19256, r10, r10
 7003a4a:	00 ac 04 00 	jal	7003a4e <_main+0x172>
 7003a4e:	e4 47       	add	4, lp
 7003a50:	0a 18       	jmp	[r10]
 7003a52:	40 bd 00 07 	movhi	1792, r0, r10
 7003a56:	4a a1 7c 4b 	movea	19324, r10, r10
 7003a5a:	00 ac 04 00 	jal	7003a5e <_main+0x182>
 7003a5e:	e4 47       	add	4, lp
 7003a60:	0a 18       	jmp	[r10]
 7003a62:	03 dc a8 01 	st.w	r0, 424[sp]
 7003a66:	f2 8a       	br	7003b58 <_main+0x27c>
 7003a68:	43 cd a8 01 	ld.w	424[sp],r10
 7003a6c:	60 a1 c8 00 	movea	200, r0, r11
 7003a70:	4b 21       	mul	r11, r10
 7003a72:	80 bd 00 05 	movhi	1280, r0, r12
 7003a76:	8c a1 f0 67 	movea	26608, r12, r12
 7003a7a:	4c 05       	add	r12, r10
 7003a7c:	ca 00       	mov	r10, r6
 7003a7e:	40 bd 01 07 	movhi	1793, r0, r10
 7003a82:	ea a0 5c 80 	movea	-32676, r10, r7
 7003a86:	40 bd 00 07 	movhi	1792, r0, r10
 7003a8a:	4a a1 c0 2f 	movea	12224, r10, r10
 7003a8e:	00 ac 04 00 	jal	7003a92 <_main+0x1b6>
 7003a92:	e4 47       	add	4, lp
 7003a94:	0a 18       	jmp	[r10]
 7003a96:	43 cd a8 01 	ld.w	424[sp],r10
 7003a9a:	60 bd 00 05 	movhi	1280, r0, r11
 7003a9e:	6b a1 f0 67 	movea	26608, r11, r11
 7003aa2:	c0 a1 c8 00 	movea	200, r0, r14
 7003aa6:	4e 21       	mul	r14, r10
 7003aa8:	4b 05       	add	r11, r10
 7003aaa:	4a a5 a0 00 	addi	160, r10, r10
 7003aae:	0a dc 00 00 	st.w	r0, 0[r10]
 7003ab2:	43 cd a8 01 	ld.w	424[sp],r10
 7003ab6:	60 bd 00 05 	movhi	1280, r0, r11
 7003aba:	6b a1 f0 67 	movea	26608, r11, r11
 7003abe:	80 a1 c8 00 	movea	200, r0, r12
 7003ac2:	4c 21       	mul	r12, r10
 7003ac4:	4b 05       	add	r11, r10
 7003ac6:	4a a5 a8 00 	addi	168, r10, r10
 7003aca:	61 41       	mov	1, r11
 7003acc:	6a dd 00 00 	st.w	r11, 0[r10]
 7003ad0:	43 cd a8 01 	ld.w	424[sp],r10
 7003ad4:	60 bd 00 05 	movhi	1280, r0, r11
 7003ad8:	6b a1 f0 67 	movea	26608, r11, r11
 7003adc:	c0 a1 c8 00 	movea	200, r0, r14
 7003ae0:	4e 21       	mul	r14, r10
 7003ae2:	4b 05       	add	r11, r10
 7003ae4:	4a a5 ac 00 	addi	172, r10, r10
 7003ae8:	62 41       	mov	2, r11
 7003aea:	6a dd 00 00 	st.w	r11, 0[r10]
 7003aee:	43 cd a8 01 	ld.w	424[sp],r10
 7003af2:	60 bd 00 05 	movhi	1280, r0, r11
 7003af6:	6b a1 f0 67 	movea	26608, r11, r11
 7003afa:	80 a1 c8 00 	movea	200, r0, r12
 7003afe:	4c 21       	mul	r12, r10
 7003b00:	4b 05       	add	r11, r10
 7003b02:	4a a5 b4 00 	addi	180, r10, r10
 7003b06:	60 a1 20 03 	movea	800, r0, r11
 7003b0a:	6a dd 00 00 	st.w	r11, 0[r10]
 7003b0e:	43 cd a8 01 	ld.w	424[sp],r10
 7003b12:	60 bd 00 05 	movhi	1280, r0, r11
 7003b16:	6b a1 f0 67 	movea	26608, r11, r11
 7003b1a:	c0 a1 c8 00 	movea	200, r0, r14
 7003b1e:	4e 21       	mul	r14, r10
 7003b20:	4b 05       	add	r11, r10
 7003b22:	4a a5 b8 00 	addi	184, r10, r10
 7003b26:	60 a1 20 03 	movea	800, r0, r11
 7003b2a:	6a dd 00 00 	st.w	r11, 0[r10]
 7003b2e:	43 cd a8 01 	ld.w	424[sp],r10
 7003b32:	60 bd 00 05 	movhi	1280, r0, r11
 7003b36:	6b a1 f0 67 	movea	26608, r11, r11
 7003b3a:	80 a1 c8 00 	movea	200, r0, r12
 7003b3e:	4c 21       	mul	r12, r10
 7003b40:	4b 05       	add	r11, r10
 7003b42:	4a a5 bc 00 	addi	188, r10, r10
 7003b46:	60 a1 20 03 	movea	800, r0, r11
 7003b4a:	6a dd 00 00 	st.w	r11, 0[r10]
 7003b4e:	43 cd a8 01 	ld.w	424[sp],r10
 7003b52:	41 45       	add	1, r10
 7003b54:	43 dd a8 01 	st.w	r10, 424[sp]
 7003b58:	43 cd a8 01 	ld.w	424[sp],r10
 7003b5c:	43 4d       	cmp	3, r10
 7003b5e:	0a 87       	bnh	7003a68 <_main+0x18c>
 7003b60:	40 a1 00 83 	movea	-32000, r0, r10
 7003b64:	43 dd 18 00 	st.w	r10, 24[sp]
 7003b68:	40 a1 20 06 	movea	1568, r0, r10
 7003b6c:	43 dd 70 00 	st.w	r10, 112[sp]
 7003b70:	40 a1 20 4e 	movea	20000, r0, r10
 7003b74:	43 dd e8 00 	st.w	r10, 232[sp]
 7003b78:	40 a1 40 1f 	movea	8000, r0, r10
 7003b7c:	43 dd e4 00 	st.w	r10, 228[sp]
 7003b80:	40 a1 20 03 	movea	800, r0, r10
 7003b84:	43 dd 30 01 	st.w	r10, 304[sp]
 7003b88:	40 a1 20 03 	movea	800, r0, r10
 7003b8c:	43 dd 34 01 	st.w	r10, 308[sp]
 7003b90:	40 a1 20 06 	movea	1568, r0, r10
 7003b94:	43 dd 38 01 	st.w	r10, 312[sp]
 7003b98:	44 41       	mov	4, r10
 7003b9a:	43 dd 58 01 	st.w	r10, 344[sp]
 7003b9e:	44 41       	mov	4, r10
 7003ba0:	43 dd 5c 01 	st.w	r10, 348[sp]
 7003ba4:	44 41       	mov	4, r10
 7003ba6:	43 dd 60 01 	st.w	r10, 352[sp]
 7003baa:	41 41       	mov	1, r10
 7003bac:	43 dd 88 01 	st.w	r10, 392[sp]
 7003bb0:	40 a1 80 0c 	movea	3200, r0, r10
 7003bb4:	43 dd 94 01 	st.w	r10, 404[sp]
 7003bb8:	40 a1 e8 03 	movea	1000, r0, r10
 7003bbc:	43 dd 98 01 	st.w	r10, 408[sp]
 7003bc0:	40 a1 98 08 	movea	2200, r0, r10
 7003bc4:	43 dd 9c 01 	st.w	r10, 412[sp]
 7003bc8:	40 bd 00 07 	movhi	1792, r0, r10
 7003bcc:	4a a1 38 4b 	movea	19256, r10, r10
 7003bd0:	00 ac 04 00 	jal	7003bd4 <_main+0x2f8>
 7003bd4:	e4 47       	add	4, lp
 7003bd6:	0a 18       	jmp	[r10]
 7003bd8:	40 bd 00 07 	movhi	1792, r0, r10
 7003bdc:	4a a1 7c 4b 	movea	19324, r10, r10
 7003be0:	00 ac 04 00 	jal	7003be4 <_main+0x308>
 7003be4:	e4 47       	add	4, lp
 7003be6:	0a 18       	jmp	[r10]
 7003be8:	40 bd 00 05 	movhi	1280, r0, r10
 7003bec:	4a a1 54 00 	movea	84, r10, r10
 7003bf0:	4a c1 00 00 	ld.b	0[r10],r10
 7003bf4:	4a b5 ff 00 	andi	255, r10, r10
 7003bf8:	60 bd 00 05 	movhi	1280, r0, r11
 7003bfc:	cb a0 cc 00 	movea	204, r11, r6
 7003c00:	ea 00       	mov	r10, r7
 7003c02:	40 bd 00 07 	movhi	1792, r0, r10
 7003c06:	4a a1 c0 4b 	movea	19392, r10, r10
 7003c0a:	00 ac 04 00 	jal	7003c0e <_main+0x332>
 7003c0e:	e4 47       	add	4, lp
 7003c10:	0a 18       	jmp	[r10]
 7003c12:	40 bd 00 07 	movhi	1792, r0, r10
 7003c16:	4a a1 f0 69 	movea	27120, r10, r10
 7003c1a:	4a cd 00 00 	ld.w	0[r10],r10
 7003c1e:	4a a5 40 01 	addi	320, r10, r10
 7003c22:	60 a1 11 00 	movea	17, r0, r11
 7003c26:	6a d1 04 00 	st.b	r11, 4[r10]
 7003c2a:	40 bd 00 07 	movhi	1792, r0, r10
 7003c2e:	4a a1 f0 69 	movea	27120, r10, r10
 7003c32:	4a cd 00 00 	ld.w	0[r10],r10
 7003c36:	4a a5 40 01 	addi	320, r10, r10
 7003c3a:	7f 41       	mov	-1, r11
 7003c3c:	6a d1 08 00 	st.b	r11, 8[r10]
 7003c40:	40 bd 00 07 	movhi	1792, r0, r10
 7003c44:	4a a1 f0 69 	movea	27120, r10, r10
 7003c48:	4a cd 00 00 	ld.w	0[r10],r10
 7003c4c:	4a a5 40 01 	addi	320, r10, r10
 7003c50:	63 41       	mov	3, r11
 7003c52:	6a d1 0c 00 	st.b	r11, 12[r10]
 7003c56:	40 bd 00 07 	movhi	1792, r0, r10
 7003c5a:	4a a1 f0 69 	movea	27120, r10, r10
 7003c5e:	4a cd 00 00 	ld.w	0[r10],r10
 7003c62:	4a a5 40 01 	addi	320, r10, r10
 7003c66:	78 41       	mov	-8, r11
 7003c68:	6a d1 10 00 	st.b	r11, 16[r10]
 7003c6c:	40 bd 00 07 	movhi	1792, r0, r10
 7003c70:	4a a1 f0 69 	movea	27120, r10, r10
 7003c74:	4a cd 00 00 	ld.w	0[r10],r10
 7003c78:	4a a5 40 01 	addi	320, r10, r10
 7003c7c:	61 41       	mov	1, r11
 7003c7e:	6a d1 14 00 	st.b	r11, 20[r10]
 7003c82:	40 bd 00 07 	movhi	1792, r0, r10
 7003c86:	4a a1 f0 69 	movea	27120, r10, r10
 7003c8a:	4a cd 00 00 	ld.w	0[r10],r10
 7003c8e:	4a a5 40 01 	addi	320, r10, r10
 7003c92:	60 a1 80 ff 	movea	-128, r0, r11
 7003c96:	6a d1 00 00 	st.b	r11, 0[r10]
 7003c9a:	00 a8 0a 07 	jr	70043a4 <_main+0xac8>
 7003c9e:	43 a5 e0 00 	addi	224, sp, r10
 7003ca2:	ca 00       	mov	r10, r6
 7003ca4:	40 bd 00 07 	movhi	1792, r0, r10
 7003ca8:	4a a1 ec 5f 	movea	24556, r10, r10
 7003cac:	00 ac 04 00 	jal	7003cb0 <_main+0x3d4>
 7003cb0:	e4 47       	add	4, lp
 7003cb2:	0a 18       	jmp	[r10]
 7003cb4:	40 bd 00 05 	movhi	1280, r0, r10
 7003cb8:	ca a0 10 6b 	movea	27408, r10, r6
 7003cbc:	40 bd 00 07 	movhi	1792, r0, r10
 7003cc0:	4a a1 0c 35 	movea	13580, r10, r10
 7003cc4:	00 ac 04 00 	jal	7003cc8 <_main+0x3ec>
 7003cc8:	e4 47       	add	4, lp
 7003cca:	0a 18       	jmp	[r10]
 7003ccc:	40 bd 00 05 	movhi	1280, r0, r10
 7003cd0:	4a a1 10 6b 	movea	27408, r10, r10
 7003cd4:	4a cd 00 00 	ld.w	0[r10],r10
 7003cd8:	43 dd f4 00 	st.w	r10, 244[sp]
 7003cdc:	40 bd 00 05 	movhi	1280, r0, r10
 7003ce0:	4a a1 10 6b 	movea	27408, r10, r10
 7003ce4:	4a cd 04 00 	ld.w	4[r10],r10
 7003ce8:	43 dd f8 00 	st.w	r10, 248[sp]
 7003cec:	40 bd 00 05 	movhi	1280, r0, r10
 7003cf0:	4a a1 10 6b 	movea	27408, r10, r10
 7003cf4:	6a cd 08 00 	ld.w	8[r10],r11
 7003cf8:	40 bd 00 05 	movhi	1280, r0, r10
 7003cfc:	4a a1 10 6b 	movea	27408, r10, r10
 7003d00:	4a cd 8c 00 	ld.w	140[r10],r10
 7003d04:	4b 05       	add	r11, r10
 7003d06:	4a a5 a0 0f 	addi	4000, r10, r10
 7003d0a:	43 dd fc 00 	st.w	r10, 252[sp]
 7003d0e:	03 dc a8 01 	st.w	r0, 424[sp]
 7003d12:	52 8a       	br	7003d64 <_main+0x488>
 7003d14:	40 bd 00 05 	movhi	1280, r0, r10
 7003d18:	6a a1 d0 00 	movea	208, r10, r11
 7003d1c:	43 cd a8 01 	ld.w	424[sp],r10
 7003d20:	c0 a1 c8 00 	movea	200, r0, r14
 7003d24:	4e 21       	mul	r14, r10
 7003d26:	4b 05       	add	r11, r10
 7003d28:	4a a5 c0 00 	addi	192, r10, r10
 7003d2c:	4a cd 00 00 	ld.w	0[r10],r10
 7003d30:	40 0d       	cmp	r0, r10
 7003d32:	28 84       	be	7003d5a <_main+0x47e>
 7003d34:	43 cd a8 01 	ld.w	424[sp],r10
 7003d38:	60 a1 c8 00 	movea	200, r0, r11
 7003d3c:	4b 21       	mul	r11, r10
 7003d3e:	80 bd 00 05 	movhi	1280, r0, r12
 7003d42:	8c a1 d0 00 	movea	208, r12, r12
 7003d46:	4c 05       	add	r12, r10
 7003d48:	ca 00       	mov	r10, r6
 7003d4a:	40 bd 00 07 	movhi	1792, r0, r10
 7003d4e:	4a a1 d8 54 	movea	21720, r10, r10
 7003d52:	00 ac 04 00 	jal	7003d56 <_main+0x47a>
 7003d56:	e4 47       	add	4, lp
 7003d58:	0a 18       	jmp	[r10]
 7003d5a:	43 cd a8 01 	ld.w	424[sp],r10
 7003d5e:	41 45       	add	1, r10
 7003d60:	43 dd a8 01 	st.w	r10, 424[sp]
 7003d64:	43 cd a8 01 	ld.w	424[sp],r10
 7003d68:	4f 4d       	cmp	15, r10
 7003d6a:	aa 87       	bnh	7003d14 <_main+0x438>
 7003d6c:	43 a5 e0 00 	addi	224, sp, r10
 7003d70:	ca 00       	mov	r10, r6
 7003d72:	40 bd 00 07 	movhi	1792, r0, r10
 7003d76:	4a a1 c8 30 	movea	12488, r10, r10
 7003d7a:	00 ac 04 00 	jal	7003d7e <_main+0x4a2>
 7003d7e:	e4 47       	add	4, lp
 7003d80:	0a 18       	jmp	[r10]
 7003d82:	03 dc a8 01 	st.w	r0, 424[sp]
 7003d86:	00 a8 3a 01 	jr	7003ec0 <_main+0x5e4>
 7003d8a:	40 bd 00 05 	movhi	1280, r0, r10
 7003d8e:	6a a1 70 5b 	movea	23408, r10, r11
 7003d92:	43 cd a8 01 	ld.w	424[sp],r10
 7003d96:	c0 a1 c8 00 	movea	200, r0, r14
 7003d9a:	4e 21       	mul	r14, r10
 7003d9c:	4b 05       	add	r11, r10
 7003d9e:	4a a5 c0 00 	addi	192, r10, r10
 7003da2:	4a cd 00 00 	ld.w	0[r10],r10
 7003da6:	40 0d       	cmp	r0, r10
 7003da8:	06 94       	bne	7003dae <_main+0x4d2>
 7003daa:	00 a8 0c 01 	jr	7003eb6 <_main+0x5da>
 7003dae:	43 cd a8 01 	ld.w	424[sp],r10
 7003db2:	60 a1 c8 00 	movea	200, r0, r11
 7003db6:	4b 21       	mul	r11, r10
 7003db8:	80 bd 00 05 	movhi	1280, r0, r12
 7003dbc:	8c a1 70 5b 	movea	23408, r12, r12
 7003dc0:	4c 05       	add	r12, r10
 7003dc2:	ca 00       	mov	r10, r6
 7003dc4:	40 bd 00 07 	movhi	1792, r0, r10
 7003dc8:	4a a1 c8 30 	movea	12488, r10, r10
 7003dcc:	00 ac 04 00 	jal	7003dd0 <_main+0x4f4>
 7003dd0:	e4 47       	add	4, lp
 7003dd2:	0a 18       	jmp	[r10]
 7003dd4:	03 dc 14 00 	st.w	r0, 20[sp]
 7003dd8:	43 cd a8 01 	ld.w	424[sp],r10
 7003ddc:	c0 a1 c8 00 	movea	200, r0, r14
 7003de0:	4e 21       	mul	r14, r10
 7003de2:	60 bd 00 05 	movhi	1280, r0, r11
 7003de6:	6b a1 70 5b 	movea	23408, r11, r11
 7003dea:	6a 05       	add	r10, r11
 7003dec:	43 cd a8 01 	ld.w	424[sp],r10
 7003df0:	80 a1 c8 00 	movea	200, r0, r12
 7003df4:	4c 21       	mul	r12, r10
 7003df6:	4a a5 b4 00 	addi	180, r10, r10
 7003dfa:	c0 bd 00 05 	movhi	1280, r0, r14
 7003dfe:	ce a1 70 5b 	movea	23408, r14, r14
 7003e02:	4e 05       	add	r14, r10
 7003e04:	a3 a5 e0 00 	addi	224, sp, r13
 7003e08:	83 a5 e0 00 	addi	224, sp, r12
 7003e0c:	8c a5 b4 00 	addi	180, r12, r12
 7003e10:	c3 a5 14 00 	addi	20, sp, r14
 7003e14:	c3 dd 10 00 	st.w	r14, 16[sp]
 7003e18:	cd 00       	mov	r13, r6
 7003e1a:	ec 00       	mov	r12, r7
 7003e1c:	0b 01       	mov	r11, r8
 7003e1e:	2a 01       	mov	r10, r9
 7003e20:	40 bd 00 07 	movhi	1792, r0, r10
 7003e24:	4a a1 a8 24 	movea	9384, r10, r10
 7003e28:	00 ac 04 00 	jal	7003e2c <_main+0x550>
 7003e2c:	e4 47       	add	4, lp
 7003e2e:	0a 18       	jmp	[r10]
 7003e30:	43 cd 14 00 	ld.w	20[sp],r10
 7003e34:	41 4d       	cmp	1, r10
 7003e36:	40 94       	bne	7003e76 <_main+0x59a>
 7003e38:	40 bd 00 05 	movhi	1280, r0, r10
 7003e3c:	4a a1 98 00 	movea	152, r10, r10
 7003e40:	61 41       	mov	1, r11
 7003e42:	6a d1 00 00 	st.b	r11, 0[r10]
 7003e46:	40 bd 00 05 	movhi	1280, r0, r10
 7003e4a:	4a a1 96 00 	movea	150, r10, r10
 7003e4e:	60 a1 2c 07 	movea	1836, r0, r11
 7003e52:	6a d5 00 00 	st.h	r11, 0[r10]
 7003e56:	40 bd 00 05 	movhi	1280, r0, r10
 7003e5a:	4a a1 94 00 	movea	148, r10, r10
 7003e5e:	0a d4 00 00 	st.h	r0, 0[r10]
 7003e62:	40 bd 00 05 	movhi	1280, r0, r10
 7003e66:	4a a1 9c 00 	movea	156, r10, r10
 7003e6a:	60 bd 01 07 	movhi	1793, r0, r11
 7003e6e:	6b a1 94 9b 	movea	-25708, r11, r11
 7003e72:	6a dd 00 00 	st.w	r11, 0[r10]
 7003e76:	40 bd 00 05 	movhi	1280, r0, r10
 7003e7a:	8a a1 70 5b 	movea	23408, r10, r12
 7003e7e:	63 cd a8 01 	ld.w	424[sp],r11
 7003e82:	4b 01       	mov	r11, r10
 7003e84:	4a 05       	add	r10, r10
 7003e86:	4b 05       	add	r11, r10
 7003e88:	43 51       	shl	3, r10
 7003e8a:	4b 05       	add	r11, r10
 7003e8c:	41 45       	add	1, r10
 7003e8e:	43 51       	shl	3, r10
 7003e90:	4c 05       	add	r12, r10
 7003e92:	4a cd 00 00 	ld.w	0[r10],r10
 7003e96:	40 0d       	cmp	r0, r10
 7003e98:	1e 94       	bne	7003eb6 <_main+0x5da>
 7003e9a:	43 cd a8 01 	ld.w	424[sp],r10
 7003e9e:	60 bd 00 05 	movhi	1280, r0, r11
 7003ea2:	6b a1 70 5b 	movea	23408, r11, r11
 7003ea6:	80 a1 c8 00 	movea	200, r0, r12
 7003eaa:	4c 21       	mul	r12, r10
 7003eac:	4b 05       	add	r11, r10
 7003eae:	4a a5 c0 00 	addi	192, r10, r10
 7003eb2:	0a dc 00 00 	st.w	r0, 0[r10]
 7003eb6:	43 cd a8 01 	ld.w	424[sp],r10
 7003eba:	41 45       	add	1, r10
 7003ebc:	43 dd a8 01 	st.w	r10, 424[sp]
 7003ec0:	43 cd a8 01 	ld.w	424[sp],r10
 7003ec4:	4f 4d       	cmp	15, r10
 7003ec6:	06 96       	bh	7003ecc <_main+0x5f0>
 7003ec8:	ff ab c2 fe 	jr	7003d8a <_main+0x4ae>
 7003ecc:	03 dc a8 01 	st.w	r0, 424[sp]
 7003ed0:	00 a8 7a 01 	jr	700404a <_main+0x76e>
 7003ed4:	63 a5 e0 00 	addi	224, sp, r11
 7003ed8:	43 cd a8 01 	ld.w	424[sp],r10
 7003edc:	c0 a1 c8 00 	movea	200, r0, r14
 7003ee0:	4e 21       	mul	r14, r10
 7003ee2:	80 bd 00 05 	movhi	1280, r0, r12
 7003ee6:	8c a1 f0 67 	movea	26608, r12, r12
 7003eea:	4c 05       	add	r12, r10
 7003eec:	cb 00       	mov	r11, r6
 7003eee:	ea 00       	mov	r10, r7
 7003ef0:	40 bd 00 07 	movhi	1792, r0, r10
 7003ef4:	4a a1 40 52 	movea	21056, r10, r10
 7003ef8:	00 ac 04 00 	jal	7003efc <_main+0x620>
 7003efc:	e4 47       	add	4, lp
 7003efe:	0a 18       	jmp	[r10]
 7003f00:	40 bd 00 05 	movhi	1280, r0, r10
 7003f04:	6a a1 f0 67 	movea	26608, r10, r11
 7003f08:	43 cd a8 01 	ld.w	424[sp],r10
 7003f0c:	c0 a1 c8 00 	movea	200, r0, r14
 7003f10:	4e 21       	mul	r14, r10
 7003f12:	4b 05       	add	r11, r10
 7003f14:	4a a5 b0 00 	addi	176, r10, r10
 7003f18:	4a cd 00 00 	ld.w	0[r10],r10
 7003f1c:	41 4d       	cmp	1, r10
 7003f1e:	06 84       	be	7003f24 <_main+0x648>
 7003f20:	00 a8 20 01 	jr	7004040 <_main+0x764>
 7003f24:	03 dc ac 01 	st.w	r0, 428[sp]
 7003f28:	00 a8 0c 01 	jr	7004034 <_main+0x758>
 7003f2c:	40 bd 00 05 	movhi	1280, r0, r10
 7003f30:	6a a1 d0 00 	movea	208, r10, r11
 7003f34:	43 cd ac 01 	ld.w	428[sp],r10
 7003f38:	80 a1 c8 00 	movea	200, r0, r12
 7003f3c:	4c 21       	mul	r12, r10
 7003f3e:	4b 05       	add	r11, r10
 7003f40:	4a a5 c0 00 	addi	192, r10, r10
 7003f44:	4a cd 00 00 	ld.w	0[r10],r10
 7003f48:	40 0d       	cmp	r0, r10
 7003f4a:	e0 84       	be	700402a <_main+0x74e>
 7003f4c:	03 dc 14 00 	st.w	r0, 20[sp]
 7003f50:	43 cd a8 01 	ld.w	424[sp],r10
 7003f54:	c0 a1 c8 00 	movea	200, r0, r14
 7003f58:	4e 21       	mul	r14, r10
 7003f5a:	a0 bd 00 05 	movhi	1280, r0, r13
 7003f5e:	ad a1 f0 67 	movea	26608, r13, r13
 7003f62:	aa 05       	add	r10, r13
 7003f64:	43 cd a8 01 	ld.w	424[sp],r10
 7003f68:	60 a1 c8 00 	movea	200, r0, r11
 7003f6c:	4b 21       	mul	r11, r10
 7003f6e:	4a a5 b4 00 	addi	180, r10, r10
 7003f72:	80 bd 00 05 	movhi	1280, r0, r12
 7003f76:	8c a1 f0 67 	movea	26608, r12, r12
 7003f7a:	8a 05       	add	r10, r12
 7003f7c:	43 cd ac 01 	ld.w	428[sp],r10
 7003f80:	c0 a1 c8 00 	movea	200, r0, r14
 7003f84:	4e 21       	mul	r14, r10
 7003f86:	60 bd 00 05 	movhi	1280, r0, r11
 7003f8a:	6b a1 d0 00 	movea	208, r11, r11
 7003f8e:	6a 05       	add	r10, r11
 7003f90:	43 cd ac 01 	ld.w	428[sp],r10
 7003f94:	c0 a1 c8 00 	movea	200, r0, r14
 7003f98:	4e 21       	mul	r14, r10
 7003f9a:	4a a5 b4 00 	addi	180, r10, r10
 7003f9e:	c0 bd 00 05 	movhi	1280, r0, r14
 7003fa2:	ce a1 d0 00 	movea	208, r14, r14
 7003fa6:	4e 05       	add	r14, r10
 7003fa8:	c3 a5 14 00 	addi	20, sp, r14
 7003fac:	c3 dd 10 00 	st.w	r14, 16[sp]
 7003fb0:	cd 00       	mov	r13, r6
 7003fb2:	ec 00       	mov	r12, r7
 7003fb4:	0b 01       	mov	r11, r8
 7003fb6:	2a 01       	mov	r10, r9
 7003fb8:	40 bd 00 07 	movhi	1792, r0, r10
 7003fbc:	4a a1 a8 24 	movea	9384, r10, r10
 7003fc0:	00 ac 04 00 	jal	7003fc4 <_main+0x6e8>
 7003fc4:	e4 47       	add	4, lp
 7003fc6:	0a 18       	jmp	[r10]
 7003fc8:	43 cd 14 00 	ld.w	20[sp],r10
 7003fcc:	41 4d       	cmp	1, r10
 7003fce:	5c 94       	bne	700402a <_main+0x74e>
 7003fd0:	40 bd 00 05 	movhi	1280, r0, r10
 7003fd4:	4a a1 98 00 	movea	152, r10, r10
 7003fd8:	61 41       	mov	1, r11
 7003fda:	6a d1 00 00 	st.b	r11, 0[r10]
 7003fde:	40 bd 00 05 	movhi	1280, r0, r10
 7003fe2:	4a a1 96 00 	movea	150, r10, r10
 7003fe6:	60 a1 2c 07 	movea	1836, r0, r11
 7003fea:	6a d5 00 00 	st.h	r11, 0[r10]
 7003fee:	40 bd 00 05 	movhi	1280, r0, r10
 7003ff2:	4a a1 94 00 	movea	148, r10, r10
 7003ff6:	0a d4 00 00 	st.h	r0, 0[r10]
 7003ffa:	40 bd 00 05 	movhi	1280, r0, r10
 7003ffe:	4a a1 9c 00 	movea	156, r10, r10
 7004002:	60 bd 01 07 	movhi	1793, r0, r11
 7004006:	6b a1 94 9b 	movea	-25708, r11, r11
 700400a:	6a dd 00 00 	st.w	r11, 0[r10]
 700400e:	43 cd ac 01 	ld.w	428[sp],r10
 7004012:	60 bd 00 05 	movhi	1280, r0, r11
 7004016:	6b a1 d0 00 	movea	208, r11, r11
 700401a:	80 a1 c8 00 	movea	200, r0, r12
 700401e:	4c 21       	mul	r12, r10
 7004020:	4b 05       	add	r11, r10
 7004022:	4a a5 c0 00 	addi	192, r10, r10
 7004026:	0a dc 00 00 	st.w	r0, 0[r10]
 700402a:	43 cd ac 01 	ld.w	428[sp],r10
 700402e:	41 45       	add	1, r10
 7004030:	43 dd ac 01 	st.w	r10, 428[sp]
 7004034:	43 cd ac 01 	ld.w	428[sp],r10
 7004038:	4f 4d       	cmp	15, r10
 700403a:	06 96       	bh	7004040 <_main+0x764>
 700403c:	ff ab f0 fe 	jr	7003f2c <_main+0x650>
 7004040:	43 cd a8 01 	ld.w	424[sp],r10
 7004044:	41 45       	add	1, r10
 7004046:	43 dd a8 01 	st.w	r10, 424[sp]
 700404a:	43 cd a8 01 	ld.w	424[sp],r10
 700404e:	43 4d       	cmp	3, r10
 7004050:	06 96       	bh	7004056 <_main+0x77a>
 7004052:	ff ab 82 fe 	jr	7003ed4 <_main+0x5f8>
 7004056:	40 bd 00 05 	movhi	1280, r0, r10
 700405a:	4a a1 6c 00 	movea	108, r10, r10
 700405e:	6a cd 00 00 	ld.w	0[r10],r11
 7004062:	40 a1 0a 01 	movea	266, r0, r10
 7004066:	6a 0d       	cmp	r10, r11
 7004068:	48 86       	bnh	70040b0 <_main+0x7d4>
 700406a:	40 bd 00 05 	movhi	1280, r0, r10
 700406e:	4a a1 6b 00 	movea	107, r10, r10
 7004072:	4a c1 00 00 	ld.b	0[r10],r10
 7004076:	4a b5 ff 00 	andi	255, r10, r10
 700407a:	47 4d       	cmp	7, r10
 700407c:	34 96       	bh	70040b0 <_main+0x7d4>
 700407e:	40 bd 00 05 	movhi	1280, r0, r10
 7004082:	4a a1 68 00 	movea	104, r10, r10
 7004086:	61 41       	mov	1, r11
 7004088:	6a d1 00 00 	st.b	r11, 0[r10]
 700408c:	40 bd 00 05 	movhi	1280, r0, r10
 7004090:	4a a1 6b 00 	movea	107, r10, r10
 7004094:	4a c1 00 00 	ld.b	0[r10],r10
 7004098:	4a b5 ff 00 	andi	255, r10, r10
 700409c:	41 45       	add	1, r10
 700409e:	6a b5 ff 00 	andi	255, r10, r11
 70040a2:	40 bd 00 05 	movhi	1280, r0, r10
 70040a6:	4a a1 6b 00 	movea	107, r10, r10
 70040aa:	6a d1 00 00 	st.b	r11, 0[r10]
 70040ae:	1a 8a       	br	70040c8 <_main+0x7ec>
 70040b0:	40 bd 00 05 	movhi	1280, r0, r10
 70040b4:	4a a1 68 00 	movea	104, r10, r10
 70040b8:	0a d0 00 00 	st.b	r0, 0[r10]
 70040bc:	40 bd 00 05 	movhi	1280, r0, r10
 70040c0:	4a a1 6b 00 	movea	107, r10, r10
 70040c4:	0a d0 00 00 	st.b	r0, 0[r10]
 70040c8:	43 a5 18 00 	addi	24, sp, r10
 70040cc:	ca 00       	mov	r10, r6
 70040ce:	40 bd 00 07 	movhi	1792, r0, r10
 70040d2:	4a a1 e8 56 	movea	22248, r10, r10
 70040d6:	00 ac 04 00 	jal	70040da <_main+0x7fe>
 70040da:	e4 47       	add	4, lp
 70040dc:	0a 18       	jmp	[r10]
 70040de:	40 bd 00 05 	movhi	1280, r0, r10
 70040e2:	4a a1 68 00 	movea	104, r10, r10
 70040e6:	4a c1 00 00 	ld.b	0[r10],r10
 70040ea:	4a b5 ff 00 	andi	255, r10, r10
 70040ee:	40 0d       	cmp	r0, r10
 70040f0:	06 84       	be	70040f6 <_main+0x81a>
 70040f2:	00 a8 a4 01 	jr	7004296 <_main+0x9ba>
 70040f6:	40 bd 00 05 	movhi	1280, r0, r10
 70040fa:	4a a1 6c 00 	movea	108, r10, r10
 70040fe:	6a cd 00 00 	ld.w	0[r10],r11
 7004102:	40 bd 00 05 	movhi	1280, r0, r10
 7004106:	4a a1 74 00 	movea	116, r10, r10
 700410a:	6a dd 00 00 	st.w	r11, 0[r10]
 700410e:	03 dc a8 01 	st.w	r0, 424[sp]
 7004112:	52 8a       	br	7004164 <_main+0x888>
 7004114:	40 bd 00 05 	movhi	1280, r0, r10
 7004118:	6a a1 d0 00 	movea	208, r10, r11
 700411c:	43 cd a8 01 	ld.w	424[sp],r10
 7004120:	c0 a1 c8 00 	movea	200, r0, r14
 7004124:	4e 21       	mul	r14, r10
 7004126:	4b 05       	add	r11, r10
 7004128:	4a a5 c0 00 	addi	192, r10, r10
 700412c:	4a cd 00 00 	ld.w	0[r10],r10
 7004130:	40 0d       	cmp	r0, r10
 7004132:	28 84       	be	700415a <_main+0x87e>
 7004134:	43 cd a8 01 	ld.w	424[sp],r10
 7004138:	60 a1 c8 00 	movea	200, r0, r11
 700413c:	4b 21       	mul	r11, r10
 700413e:	80 bd 00 05 	movhi	1280, r0, r12
 7004142:	8c a1 d0 00 	movea	208, r12, r12
 7004146:	4c 05       	add	r12, r10
 7004148:	ca 00       	mov	r10, r6
 700414a:	40 bd 00 07 	movhi	1792, r0, r10
 700414e:	4a a1 f0 1e 	movea	7920, r10, r10
 7004152:	00 ac 04 00 	jal	7004156 <_main+0x87a>
 7004156:	e4 47       	add	4, lp
 7004158:	0a 18       	jmp	[r10]
 700415a:	43 cd a8 01 	ld.w	424[sp],r10
 700415e:	41 45       	add	1, r10
 7004160:	43 dd a8 01 	st.w	r10, 424[sp]
 7004164:	43 cd a8 01 	ld.w	424[sp],r10
 7004168:	4f 4d       	cmp	15, r10
 700416a:	aa 87       	bnh	7004114 <_main+0x838>
 700416c:	43 a5 e0 00 	addi	224, sp, r10
 7004170:	ca 00       	mov	r10, r6
 7004172:	40 bd 00 07 	movhi	1792, r0, r10
 7004176:	4a a1 f0 1e 	movea	7920, r10, r10
 700417a:	00 ac 04 00 	jal	700417e <_main+0x8a2>
 700417e:	e4 47       	add	4, lp
 7004180:	0a 18       	jmp	[r10]
 7004182:	03 dc a8 01 	st.w	r0, 424[sp]
 7004186:	52 8a       	br	70041d8 <_main+0x8fc>
 7004188:	40 bd 00 05 	movhi	1280, r0, r10
 700418c:	6a a1 70 5b 	movea	23408, r10, r11
 7004190:	43 cd a8 01 	ld.w	424[sp],r10
 7004194:	c0 a1 c8 00 	movea	200, r0, r14
 7004198:	4e 21       	mul	r14, r10
 700419a:	4b 05       	add	r11, r10
 700419c:	4a a5 c0 00 	addi	192, r10, r10
 70041a0:	4a cd 00 00 	ld.w	0[r10],r10
 70041a4:	40 0d       	cmp	r0, r10
 70041a6:	28 84       	be	70041ce <_main+0x8f2>
 70041a8:	43 cd a8 01 	ld.w	424[sp],r10
 70041ac:	60 a1 c8 00 	movea	200, r0, r11
 70041b0:	4b 21       	mul	r11, r10
 70041b2:	80 bd 00 05 	movhi	1280, r0, r12
 70041b6:	8c a1 70 5b 	movea	23408, r12, r12
 70041ba:	4c 05       	add	r12, r10
 70041bc:	ca 00       	mov	r10, r6
 70041be:	40 bd 00 07 	movhi	1792, r0, r10
 70041c2:	4a a1 f0 1e 	movea	7920, r10, r10
 70041c6:	00 ac 04 00 	jal	70041ca <_main+0x8ee>
 70041ca:	e4 47       	add	4, lp
 70041cc:	0a 18       	jmp	[r10]
 70041ce:	43 cd a8 01 	ld.w	424[sp],r10
 70041d2:	41 45       	add	1, r10
 70041d4:	43 dd a8 01 	st.w	r10, 424[sp]
 70041d8:	43 cd a8 01 	ld.w	424[sp],r10
 70041dc:	4f 4d       	cmp	15, r10
 70041de:	aa 87       	bnh	7004188 <_main+0x8ac>
 70041e0:	03 dc a8 01 	st.w	r0, 424[sp]
 70041e4:	32 8a       	br	7004216 <_main+0x93a>
 70041e6:	43 cd a8 01 	ld.w	424[sp],r10
 70041ea:	c0 a1 c8 00 	movea	200, r0, r14
 70041ee:	4e 21       	mul	r14, r10
 70041f0:	60 bd 00 05 	movhi	1280, r0, r11
 70041f4:	6b a1 f0 67 	movea	26608, r11, r11
 70041f8:	4b 05       	add	r11, r10
 70041fa:	ca 00       	mov	r10, r6
 70041fc:	40 bd 00 07 	movhi	1792, r0, r10
 7004200:	4a a1 f0 1e 	movea	7920, r10, r10
 7004204:	00 ac 04 00 	jal	7004208 <_main+0x92c>
 7004208:	e4 47       	add	4, lp
 700420a:	0a 18       	jmp	[r10]
 700420c:	43 cd a8 01 	ld.w	424[sp],r10
 7004210:	41 45       	add	1, r10
 7004212:	43 dd a8 01 	st.w	r10, 424[sp]
 7004216:	43 cd a8 01 	ld.w	424[sp],r10
 700421a:	43 4d       	cmp	3, r10
 700421c:	ca 87       	bnh	70041e6 <_main+0x90a>
 700421e:	40 bd 00 05 	movhi	1280, r0, r10
 7004222:	4a a1 6c 00 	movea	108, r10, r10
 7004226:	6a cd 00 00 	ld.w	0[r10],r11
 700422a:	40 bd 00 05 	movhi	1280, r0, r10
 700422e:	4a a1 78 00 	movea	120, r10, r10
 7004232:	6a dd 00 00 	st.w	r11, 0[r10]
 7004236:	40 bd 00 05 	movhi	1280, r0, r10
 700423a:	4a a1 78 00 	movea	120, r10, r10
 700423e:	6a cd 00 00 	ld.w	0[r10],r11
 7004242:	40 bd 00 05 	movhi	1280, r0, r10
 7004246:	4a a1 74 00 	movea	116, r10, r10
 700424a:	4a cd 00 00 	ld.w	0[r10],r10
 700424e:	6a 09       	sub	r10, r11
 7004250:	40 bd 00 05 	movhi	1280, r0, r10
 7004254:	4a a1 70 00 	movea	112, r10, r10
 7004258:	4a cd 00 00 	ld.w	0[r10],r10
 700425c:	6a 0d       	cmp	r10, r11
 700425e:	28 86       	bnh	7004286 <_main+0x9aa>
 7004260:	40 bd 00 05 	movhi	1280, r0, r10
 7004264:	4a a1 78 00 	movea	120, r10, r10
 7004268:	6a cd 00 00 	ld.w	0[r10],r11
 700426c:	40 bd 00 05 	movhi	1280, r0, r10
 7004270:	4a a1 74 00 	movea	116, r10, r10
 7004274:	4a cd 00 00 	ld.w	0[r10],r10
 7004278:	6a 09       	sub	r10, r11
 700427a:	40 bd 00 05 	movhi	1280, r0, r10
 700427e:	4a a1 70 00 	movea	112, r10, r10
 7004282:	6a dd 00 00 	st.w	r11, 0[r10]
 7004286:	40 bd 00 07 	movhi	1792, r0, r10
 700428a:	4a a1 3c 68 	movea	26684, r10, r10
 700428e:	00 ac 04 00 	jal	7004292 <_main+0x9b6>
 7004292:	e4 47       	add	4, lp
 7004294:	0a 18       	jmp	[r10]
 7004296:	40 bd 00 05 	movhi	1280, r0, r10
 700429a:	4a a1 6c 00 	movea	108, r10, r10
 700429e:	6a cd 00 00 	ld.w	0[r10],r11
 70042a2:	40 a1 09 01 	movea	265, r0, r10
 70042a6:	6a 0d       	cmp	r10, r11
 70042a8:	ee 87       	bnh	7004296 <_main+0x9ba>
 70042aa:	40 bd 00 05 	movhi	1280, r0, r10
 70042ae:	4a a1 6c 00 	movea	108, r10, r10
 70042b2:	6a cd 00 00 	ld.w	0[r10],r11
 70042b6:	40 a1 0a 01 	movea	266, r0, r10
 70042ba:	6a 0d       	cmp	r10, r11
 70042bc:	10 96       	bh	70042cc <_main+0x9f0>
 70042be:	40 bd 00 05 	movhi	1280, r0, r10
 70042c2:	4a a1 6c 00 	movea	108, r10, r10
 70042c6:	0a dc 00 00 	st.w	r0, 0[r10]
 70042ca:	1e 8a       	br	70042e8 <_main+0xa0c>
 70042cc:	40 bd 00 05 	movhi	1280, r0, r10
 70042d0:	4a a1 6c 00 	movea	108, r10, r10
 70042d4:	4a cd 00 00 	ld.w	0[r10],r10
 70042d8:	6a a5 f6 fe 	addi	-266, r10, r11
 70042dc:	40 bd 00 05 	movhi	1280, r0, r10
 70042e0:	4a a1 6c 00 	movea	108, r10, r10
 70042e4:	6a dd 00 00 	st.w	r11, 0[r10]
 70042e8:	03 dc a8 01 	st.w	r0, 424[sp]
 70042ec:	0c 8a       	br	70042f8 <_main+0xa1c>
 70042ee:	43 cd a8 01 	ld.w	424[sp],r10
 70042f2:	41 45       	add	1, r10
 70042f4:	43 dd a8 01 	st.w	r10, 424[sp]
 70042f8:	40 bd 00 05 	movhi	1280, r0, r10
 70042fc:	6a a1 70 5b 	movea	23408, r10, r11
 7004300:	43 cd a8 01 	ld.w	424[sp],r10
 7004304:	80 a1 c8 00 	movea	200, r0, r12
 7004308:	4c 21       	mul	r12, r10
 700430a:	4b 05       	add	r11, r10
 700430c:	4a a5 c0 00 	addi	192, r10, r10
 7004310:	4a cd 00 00 	ld.w	0[r10],r10
 7004314:	40 0d       	cmp	r0, r10
 7004316:	0a 94       	bne	7004320 <_main+0xa44>
 7004318:	43 cd a8 01 	ld.w	424[sp],r10
 700431c:	4f 4d       	cmp	15, r10
 700431e:	d0 87       	bnh	70042ee <_main+0xa12>
 7004320:	63 cd a8 01 	ld.w	424[sp],r11
 7004324:	40 a1 10 00 	movea	16, r0, r10
 7004328:	6a 0d       	cmp	r10, r11
 700432a:	62 94       	bne	700438c <_main+0xab0>
 700432c:	40 bd 00 05 	movhi	1280, r0, r10
 7004330:	4a a1 b9 00 	movea	185, r10, r10
 7004334:	4a c1 00 00 	ld.b	0[r10],r10
 7004338:	4a b5 ff 00 	andi	255, r10, r10
 700433c:	40 0d       	cmp	r0, r10
 700433e:	4e 94       	bne	700438c <_main+0xab0>
 7004340:	40 bd 00 05 	movhi	1280, r0, r10
 7004344:	4a a1 54 00 	movea	84, r10, r10
 7004348:	4a c1 00 00 	ld.b	0[r10],r10
 700434c:	4a b5 ff 00 	andi	255, r10, r10
 7004350:	41 45       	add	1, r10
 7004352:	6a b5 ff 00 	andi	255, r10, r11
 7004356:	40 bd 00 05 	movhi	1280, r0, r10
 700435a:	4a a1 54 00 	movea	84, r10, r10
 700435e:	6a d1 00 00 	st.b	r11, 0[r10]
 7004362:	40 bd 00 05 	movhi	1280, r0, r10
 7004366:	4a a1 54 00 	movea	84, r10, r10
 700436a:	4a c1 00 00 	ld.b	0[r10],r10
 700436e:	4a b5 ff 00 	andi	255, r10, r10
 7004372:	60 bd 00 05 	movhi	1280, r0, r11
 7004376:	cb a0 cc 00 	movea	204, r11, r6
 700437a:	ea 00       	mov	r10, r7
 700437c:	40 bd 00 07 	movhi	1792, r0, r10
 7004380:	4a a1 c0 4b 	movea	19392, r10, r10
 7004384:	00 ac 04 00 	jal	7004388 <_main+0xaac>
 7004388:	e4 47       	add	4, lp
 700438a:	0a 18       	jmp	[r10]
 700438c:	40 bd 00 05 	movhi	1280, r0, r10
 7004390:	4a a1 b9 00 	movea	185, r10, r10
 7004394:	4a c1 00 00 	ld.b	0[r10],r10
 7004398:	4a b5 ff 00 	andi	255, r10, r10
 700439c:	41 4d       	cmp	1, r10
 700439e:	06 94       	bne	70043a4 <_main+0xac8>
 70043a0:	03 d0 b3 01 	st.b	r0, 435[sp]
 70043a4:	43 c1 b3 01 	ld.b	435[sp],r10
 70043a8:	4a b5 ff 00 	andi	255, r10, r10
 70043ac:	40 0d       	cmp	r0, r10
 70043ae:	06 84       	be	70043b4 <_main+0xad8>
 70043b0:	ff ab ee f8 	jr	7003c9e <_main+0x3c2>
 70043b4:	40 bd 00 07 	movhi	1792, r0, r10
 70043b8:	4a a1 3c 68 	movea	26684, r10, r10
 70043bc:	00 ac 04 00 	jal	70043c0 <_main+0xae4>
 70043c0:	e4 47       	add	4, lp
 70043c2:	0a 18       	jmp	[r10]
 70043c4:	40 bd 00 07 	movhi	1792, r0, r10
 70043c8:	4a a1 f0 69 	movea	27120, r10, r10
 70043cc:	4a cd 00 00 	ld.w	0[r10],r10
 70043d0:	4a a5 40 01 	addi	320, r10, r10
 70043d4:	0a d0 00 00 	st.b	r0, 0[r10]
 70043d8:	40 bd 00 07 	movhi	1792, r0, r10
 70043dc:	4a a1 28 0c 	movea	3112, r10, r10
 70043e0:	00 ac 04 00 	jal	70043e4 <_main+0xb08>
 70043e4:	e4 47       	add	4, lp
 70043e6:	0a 18       	jmp	[r10]
 70043e8:	6a b5 ff ff 	andi	65535, r10, r11
 70043ec:	40 bd 00 05 	movhi	1280, r0, r10
 70043f0:	4a a1 c8 00 	movea	200, r10, r10
 70043f4:	6a d5 00 00 	st.h	r11, 0[r10]
 70043f8:	40 bd 00 05 	movhi	1280, r0, r10
 70043fc:	4a a1 c8 00 	movea	200, r10, r10
 7004400:	4a c5 00 00 	ld.h	0[r10],r10
 7004404:	4a b5 ff ff 	andi	65535, r10, r10
 7004408:	4a b5 04 00 	andi	4, r10, r10
 700440c:	40 0d       	cmp	r0, r10
 700440e:	ca 95       	bne	70043d8 <_main+0xafc>
 7004410:	40 bd 00 07 	movhi	1792, r0, r10
 7004414:	4a a1 2c 44 	movea	17452, r10, r10
 7004418:	00 ac 04 00 	jal	700441c <_main+0xb40>
 700441c:	e4 47       	add	4, lp
 700441e:	0a 18       	jmp	[r10]
 7004420:	40 41       	mov	0, r10
 7004422:	e3 cf b4 01 	ld.w	436[sp],lp
 7004426:	63 a4 b8 01 	addi	440, sp, sp
 700442a:	1f 18       	jmp	[lp]

0700442c <_ending>:
 700442c:	63 a4 e8 ff 	addi	-24, sp, sp
 7004430:	e3 df 14 00 	st.w	lp, 20[sp]
 7004434:	41 41       	mov	1, r10
 7004436:	43 d1 13 00 	st.b	r10, 19[sp]
 700443a:	00 a8 6a 01 	jr	70045a4 <_ending+0x178>
 700443e:	c0 40       	mov	0, r6
 7004440:	e1 40       	mov	1, r7
 7004442:	00 41       	mov	0, r8
 7004444:	40 bd 01 07 	movhi	1793, r0, r10
 7004448:	2a a1 e4 10 	movea	4324, r10, r9
 700444c:	40 bd 00 07 	movhi	1792, r0, r10
 7004450:	4a a1 9c 0f 	movea	3996, r10, r10
 7004454:	00 ac 04 00 	jal	7004458 <_ending+0x2c>
 7004458:	e4 47       	add	4, lp
 700445a:	0a 18       	jmp	[r10]
 700445c:	c0 40       	mov	0, r6
 700445e:	e1 40       	mov	1, r7
 7004460:	01 41       	mov	1, r8
 7004462:	40 bd 01 07 	movhi	1793, r0, r10
 7004466:	2a a1 12 11 	movea	4370, r10, r9
 700446a:	40 bd 00 07 	movhi	1792, r0, r10
 700446e:	4a a1 9c 0f 	movea	3996, r10, r10
 7004472:	00 ac 04 00 	jal	7004476 <_ending+0x4a>
 7004476:	e4 47       	add	4, lp
 7004478:	0a 18       	jmp	[r10]
 700447a:	c0 40       	mov	0, r6
 700447c:	e1 40       	mov	1, r7
 700447e:	02 41       	mov	2, r8
 7004480:	40 bd 01 07 	movhi	1793, r0, r10
 7004484:	2a a1 40 11 	movea	4416, r10, r9
 7004488:	40 bd 00 07 	movhi	1792, r0, r10
 700448c:	4a a1 9c 0f 	movea	3996, r10, r10
 7004490:	00 ac 04 00 	jal	7004494 <_ending+0x68>
 7004494:	e4 47       	add	4, lp
 7004496:	0a 18       	jmp	[r10]
 7004498:	c0 40       	mov	0, r6
 700449a:	e1 40       	mov	1, r7
 700449c:	03 41       	mov	3, r8
 700449e:	40 bd 01 07 	movhi	1793, r0, r10
 70044a2:	2a a1 6e 11 	movea	4462, r10, r9
 70044a6:	40 bd 00 07 	movhi	1792, r0, r10
 70044aa:	4a a1 9c 0f 	movea	3996, r10, r10
 70044ae:	00 ac 04 00 	jal	70044b2 <_ending+0x86>
 70044b2:	e4 47       	add	4, lp
 70044b4:	0a 18       	jmp	[r10]
 70044b6:	c0 40       	mov	0, r6
 70044b8:	e1 40       	mov	1, r7
 70044ba:	04 41       	mov	4, r8
 70044bc:	40 bd 01 07 	movhi	1793, r0, r10
 70044c0:	2a a1 9c 11 	movea	4508, r10, r9
 70044c4:	40 bd 00 07 	movhi	1792, r0, r10
 70044c8:	4a a1 9c 0f 	movea	3996, r10, r10
 70044cc:	00 ac 04 00 	jal	70044d0 <_ending+0xa4>
 70044d0:	e4 47       	add	4, lp
 70044d2:	0a 18       	jmp	[r10]
 70044d4:	c0 40       	mov	0, r6
 70044d6:	e1 40       	mov	1, r7
 70044d8:	05 41       	mov	5, r8
 70044da:	40 bd 01 07 	movhi	1793, r0, r10
 70044de:	2a a1 ca 11 	movea	4554, r10, r9
 70044e2:	40 bd 00 07 	movhi	1792, r0, r10
 70044e6:	4a a1 9c 0f 	movea	3996, r10, r10
 70044ea:	00 ac 04 00 	jal	70044ee <_ending+0xc2>
 70044ee:	e4 47       	add	4, lp
 70044f0:	0a 18       	jmp	[r10]
 70044f2:	c0 40       	mov	0, r6
 70044f4:	e1 40       	mov	1, r7
 70044f6:	06 41       	mov	6, r8
 70044f8:	40 bd 01 07 	movhi	1793, r0, r10
 70044fc:	2a a1 f8 11 	movea	4600, r10, r9
 7004500:	40 bd 00 07 	movhi	1792, r0, r10
 7004504:	4a a1 9c 0f 	movea	3996, r10, r10
 7004508:	00 ac 04 00 	jal	700450c <_ending+0xe0>
 700450c:	e4 47       	add	4, lp
 700450e:	0a 18       	jmp	[r10]
 7004510:	c0 40       	mov	0, r6
 7004512:	e1 40       	mov	1, r7
 7004514:	07 41       	mov	7, r8
 7004516:	40 bd 01 07 	movhi	1793, r0, r10
 700451a:	2a a1 26 12 	movea	4646, r10, r9
 700451e:	40 bd 00 07 	movhi	1792, r0, r10
 7004522:	4a a1 9c 0f 	movea	3996, r10, r10
 7004526:	00 ac 04 00 	jal	700452a <_ending+0xfe>
 700452a:	e4 47       	add	4, lp
 700452c:	0a 18       	jmp	[r10]
 700452e:	c0 40       	mov	0, r6
 7004530:	e1 40       	mov	1, r7
 7004532:	08 41       	mov	8, r8
 7004534:	40 bd 01 07 	movhi	1793, r0, r10
 7004538:	2a a1 54 12 	movea	4692, r10, r9
 700453c:	40 bd 00 07 	movhi	1792, r0, r10
 7004540:	4a a1 9c 0f 	movea	3996, r10, r10
 7004544:	00 ac 04 00 	jal	7004548 <_ending+0x11c>
 7004548:	e4 47       	add	4, lp
 700454a:	0a 18       	jmp	[r10]
 700454c:	40 bd 00 07 	movhi	1792, r0, r10
 7004550:	4a a1 28 0c 	movea	3112, r10, r10
 7004554:	00 ac 04 00 	jal	7004558 <_ending+0x12c>
 7004558:	e4 47       	add	4, lp
 700455a:	0a 18       	jmp	[r10]
 700455c:	6a b5 ff ff 	andi	65535, r10, r11
 7004560:	40 bd 00 05 	movhi	1280, r0, r10
 7004564:	4a a1 c8 00 	movea	200, r10, r10
 7004568:	6a d5 00 00 	st.h	r11, 0[r10]
 700456c:	40 bd 00 05 	movhi	1280, r0, r10
 7004570:	4a a1 6c 00 	movea	108, r10, r10
 7004574:	0a dc 00 00 	st.w	r0, 0[r10]
 7004578:	40 bd 00 05 	movhi	1280, r0, r10
 700457c:	4a a1 c8 00 	movea	200, r10, r10
 7004580:	4a c5 00 00 	ld.h	0[r10],r10
 7004584:	4a b5 ff ff 	andi	65535, r10, r10
 7004588:	4a b5 04 00 	andi	4, r10, r10
 700458c:	40 0d       	cmp	r0, r10
 700458e:	06 84       	be	7004594 <_ending+0x168>
 7004590:	03 d0 13 00 	st.b	r0, 19[sp]
 7004594:	40 bd 00 07 	movhi	1792, r0, r10
 7004598:	4a a1 3c 68 	movea	26684, r10, r10
 700459c:	00 ac 04 00 	jal	70045a0 <_ending+0x174>
 70045a0:	e4 47       	add	4, lp
 70045a2:	0a 18       	jmp	[r10]
 70045a4:	43 c1 13 00 	ld.b	19[sp],r10
 70045a8:	4a b5 ff 00 	andi	255, r10, r10
 70045ac:	40 0d       	cmp	r0, r10
 70045ae:	06 84       	be	70045b4 <_ending+0x188>
 70045b0:	ff ab 8e fe 	jr	700443e <_ending+0x12>
 70045b4:	c0 40       	mov	0, r6
 70045b6:	e1 40       	mov	1, r7
 70045b8:	01 41       	mov	1, r8
 70045ba:	40 bd 01 07 	movhi	1793, r0, r10
 70045be:	2a a1 e4 10 	movea	4324, r10, r9
 70045c2:	40 bd 00 07 	movhi	1792, r0, r10
 70045c6:	4a a1 9c 0f 	movea	3996, r10, r10
 70045ca:	00 ac 04 00 	jal	70045ce <_ending+0x1a2>
 70045ce:	e4 47       	add	4, lp
 70045d0:	0a 18       	jmp	[r10]
 70045d2:	c0 40       	mov	0, r6
 70045d4:	e1 40       	mov	1, r7
 70045d6:	02 41       	mov	2, r8
 70045d8:	40 bd 01 07 	movhi	1793, r0, r10
 70045dc:	2a a1 e4 10 	movea	4324, r10, r9
 70045e0:	40 bd 00 07 	movhi	1792, r0, r10
 70045e4:	4a a1 9c 0f 	movea	3996, r10, r10
 70045e8:	00 ac 04 00 	jal	70045ec <_ending+0x1c0>
 70045ec:	e4 47       	add	4, lp
 70045ee:	0a 18       	jmp	[r10]
 70045f0:	c0 40       	mov	0, r6
 70045f2:	e1 40       	mov	1, r7
 70045f4:	03 41       	mov	3, r8
 70045f6:	40 bd 01 07 	movhi	1793, r0, r10
 70045fa:	2a a1 e4 10 	movea	4324, r10, r9
 70045fe:	40 bd 00 07 	movhi	1792, r0, r10
 7004602:	4a a1 9c 0f 	movea	3996, r10, r10
 7004606:	00 ac 04 00 	jal	700460a <_ending+0x1de>
 700460a:	e4 47       	add	4, lp
 700460c:	0a 18       	jmp	[r10]
 700460e:	c0 40       	mov	0, r6
 7004610:	e1 40       	mov	1, r7
 7004612:	04 41       	mov	4, r8
 7004614:	40 bd 01 07 	movhi	1793, r0, r10
 7004618:	2a a1 e4 10 	movea	4324, r10, r9
 700461c:	40 bd 00 07 	movhi	1792, r0, r10
 7004620:	4a a1 9c 0f 	movea	3996, r10, r10
 7004624:	00 ac 04 00 	jal	7004628 <_ending+0x1fc>
 7004628:	e4 47       	add	4, lp
 700462a:	0a 18       	jmp	[r10]
 700462c:	c0 40       	mov	0, r6
 700462e:	e1 40       	mov	1, r7
 7004630:	05 41       	mov	5, r8
 7004632:	40 bd 01 07 	movhi	1793, r0, r10
 7004636:	2a a1 e4 10 	movea	4324, r10, r9
 700463a:	40 bd 00 07 	movhi	1792, r0, r10
 700463e:	4a a1 9c 0f 	movea	3996, r10, r10
 7004642:	00 ac 04 00 	jal	7004646 <_ending+0x21a>
 7004646:	e4 47       	add	4, lp
 7004648:	0a 18       	jmp	[r10]
 700464a:	c0 40       	mov	0, r6
 700464c:	e1 40       	mov	1, r7
 700464e:	06 41       	mov	6, r8
 7004650:	40 bd 01 07 	movhi	1793, r0, r10
 7004654:	2a a1 e4 10 	movea	4324, r10, r9
 7004658:	40 bd 00 07 	movhi	1792, r0, r10
 700465c:	4a a1 9c 0f 	movea	3996, r10, r10
 7004660:	00 ac 04 00 	jal	7004664 <_ending+0x238>
 7004664:	e4 47       	add	4, lp
 7004666:	0a 18       	jmp	[r10]
 7004668:	c0 40       	mov	0, r6
 700466a:	e1 40       	mov	1, r7
 700466c:	07 41       	mov	7, r8
 700466e:	40 bd 01 07 	movhi	1793, r0, r10
 7004672:	2a a1 e4 10 	movea	4324, r10, r9
 7004676:	40 bd 00 07 	movhi	1792, r0, r10
 700467a:	4a a1 9c 0f 	movea	3996, r10, r10
 700467e:	00 ac 04 00 	jal	7004682 <_ending+0x256>
 7004682:	e4 47       	add	4, lp
 7004684:	0a 18       	jmp	[r10]
 7004686:	c0 40       	mov	0, r6
 7004688:	e1 40       	mov	1, r7
 700468a:	08 41       	mov	8, r8
 700468c:	40 bd 01 07 	movhi	1793, r0, r10
 7004690:	2a a1 e4 10 	movea	4324, r10, r9
 7004694:	40 bd 00 07 	movhi	1792, r0, r10
 7004698:	4a a1 9c 0f 	movea	3996, r10, r10
 700469c:	00 ac 04 00 	jal	70046a0 <_ending+0x274>
 70046a0:	e4 47       	add	4, lp
 70046a2:	0a 18       	jmp	[r10]
 70046a4:	e3 cf 14 00 	ld.w	20[sp],lp
 70046a8:	63 a4 18 00 	addi	24, sp, sp
 70046ac:	1f 18       	jmp	[lp]
	...

070046b0 <_intro1>:
 70046b0:	63 a4 e8 ff 	addi	-24, sp, sp
 70046b4:	e3 df 14 00 	st.w	lp, 20[sp]
 70046b8:	41 41       	mov	1, r10
 70046ba:	43 d1 13 00 	st.b	r10, 19[sp]
 70046be:	00 a8 88 01 	jr	7004846 <_intro1+0x196>
 70046c2:	c0 40       	mov	0, r6
 70046c4:	e1 40       	mov	1, r7
 70046c6:	01 41       	mov	1, r8
 70046c8:	40 bd 01 07 	movhi	1793, r0, r10
 70046cc:	2a a1 82 12 	movea	4738, r10, r9
 70046d0:	40 bd 00 07 	movhi	1792, r0, r10
 70046d4:	4a a1 9c 0f 	movea	3996, r10, r10
 70046d8:	00 ac 04 00 	jal	70046dc <_intro1+0x2c>
 70046dc:	e4 47       	add	4, lp
 70046de:	0a 18       	jmp	[r10]
 70046e0:	c0 40       	mov	0, r6
 70046e2:	e1 40       	mov	1, r7
 70046e4:	02 41       	mov	2, r8
 70046e6:	40 bd 01 07 	movhi	1793, r0, r10
 70046ea:	2a a1 ad 12 	movea	4781, r10, r9
 70046ee:	40 bd 00 07 	movhi	1792, r0, r10
 70046f2:	4a a1 9c 0f 	movea	3996, r10, r10
 70046f6:	00 ac 04 00 	jal	70046fa <_intro1+0x4a>
 70046fa:	e4 47       	add	4, lp
 70046fc:	0a 18       	jmp	[r10]
 70046fe:	c0 40       	mov	0, r6
 7004700:	e1 40       	mov	1, r7
 7004702:	03 41       	mov	3, r8
 7004704:	40 bd 01 07 	movhi	1793, r0, r10
 7004708:	2a a1 d8 12 	movea	4824, r10, r9
 700470c:	40 bd 00 07 	movhi	1792, r0, r10
 7004710:	4a a1 9c 0f 	movea	3996, r10, r10
 7004714:	00 ac 04 00 	jal	7004718 <_intro1+0x68>
 7004718:	e4 47       	add	4, lp
 700471a:	0a 18       	jmp	[r10]
 700471c:	c0 40       	mov	0, r6
 700471e:	e1 40       	mov	1, r7
 7004720:	04 41       	mov	4, r8
 7004722:	40 bd 01 07 	movhi	1793, r0, r10
 7004726:	2a a1 03 13 	movea	4867, r10, r9
 700472a:	40 bd 00 07 	movhi	1792, r0, r10
 700472e:	4a a1 9c 0f 	movea	3996, r10, r10
 7004732:	00 ac 04 00 	jal	7004736 <_intro1+0x86>
 7004736:	e4 47       	add	4, lp
 7004738:	0a 18       	jmp	[r10]
 700473a:	c0 40       	mov	0, r6
 700473c:	e1 40       	mov	1, r7
 700473e:	05 41       	mov	5, r8
 7004740:	40 bd 01 07 	movhi	1793, r0, r10
 7004744:	2a a1 2e 13 	movea	4910, r10, r9
 7004748:	40 bd 00 07 	movhi	1792, r0, r10
 700474c:	4a a1 9c 0f 	movea	3996, r10, r10
 7004750:	00 ac 04 00 	jal	7004754 <_intro1+0xa4>
 7004754:	e4 47       	add	4, lp
 7004756:	0a 18       	jmp	[r10]
 7004758:	c0 40       	mov	0, r6
 700475a:	e1 40       	mov	1, r7
 700475c:	06 41       	mov	6, r8
 700475e:	40 bd 01 07 	movhi	1793, r0, r10
 7004762:	2a a1 59 13 	movea	4953, r10, r9
 7004766:	40 bd 00 07 	movhi	1792, r0, r10
 700476a:	4a a1 9c 0f 	movea	3996, r10, r10
 700476e:	00 ac 04 00 	jal	7004772 <_intro1+0xc2>
 7004772:	e4 47       	add	4, lp
 7004774:	0a 18       	jmp	[r10]
 7004776:	c0 40       	mov	0, r6
 7004778:	e1 40       	mov	1, r7
 700477a:	07 41       	mov	7, r8
 700477c:	40 bd 01 07 	movhi	1793, r0, r10
 7004780:	2a a1 84 13 	movea	4996, r10, r9
 7004784:	40 bd 00 07 	movhi	1792, r0, r10
 7004788:	4a a1 9c 0f 	movea	3996, r10, r10
 700478c:	00 ac 04 00 	jal	7004790 <_intro1+0xe0>
 7004790:	e4 47       	add	4, lp
 7004792:	0a 18       	jmp	[r10]
 7004794:	c0 40       	mov	0, r6
 7004796:	e1 40       	mov	1, r7
 7004798:	08 41       	mov	8, r8
 700479a:	40 bd 01 07 	movhi	1793, r0, r10
 700479e:	2a a1 af 13 	movea	5039, r10, r9
 70047a2:	40 bd 00 07 	movhi	1792, r0, r10
 70047a6:	4a a1 9c 0f 	movea	3996, r10, r10
 70047aa:	00 ac 04 00 	jal	70047ae <_intro1+0xfe>
 70047ae:	e4 47       	add	4, lp
 70047b0:	0a 18       	jmp	[r10]
 70047b2:	c0 40       	mov	0, r6
 70047b4:	e1 40       	mov	1, r7
 70047b6:	09 41       	mov	9, r8
 70047b8:	40 bd 01 07 	movhi	1793, r0, r10
 70047bc:	2a a1 da 13 	movea	5082, r10, r9
 70047c0:	40 bd 00 07 	movhi	1792, r0, r10
 70047c4:	4a a1 9c 0f 	movea	3996, r10, r10
 70047c8:	00 ac 04 00 	jal	70047cc <_intro1+0x11c>
 70047cc:	e4 47       	add	4, lp
 70047ce:	0a 18       	jmp	[r10]
 70047d0:	c0 40       	mov	0, r6
 70047d2:	e1 40       	mov	1, r7
 70047d4:	0c 41       	mov	12, r8
 70047d6:	40 bd 01 07 	movhi	1793, r0, r10
 70047da:	2a a1 04 14 	movea	5124, r10, r9
 70047de:	40 bd 00 07 	movhi	1792, r0, r10
 70047e2:	4a a1 9c 0f 	movea	3996, r10, r10
 70047e6:	00 ac 04 00 	jal	70047ea <_intro1+0x13a>
 70047ea:	e4 47       	add	4, lp
 70047ec:	0a 18       	jmp	[r10]
 70047ee:	40 bd 00 07 	movhi	1792, r0, r10
 70047f2:	4a a1 28 0c 	movea	3112, r10, r10
 70047f6:	00 ac 04 00 	jal	70047fa <_intro1+0x14a>
 70047fa:	e4 47       	add	4, lp
 70047fc:	0a 18       	jmp	[r10]
 70047fe:	6a b5 ff ff 	andi	65535, r10, r11
 7004802:	40 bd 00 05 	movhi	1280, r0, r10
 7004806:	4a a1 c8 00 	movea	200, r10, r10
 700480a:	6a d5 00 00 	st.h	r11, 0[r10]
 700480e:	40 bd 00 05 	movhi	1280, r0, r10
 7004812:	4a a1 6c 00 	movea	108, r10, r10
 7004816:	0a dc 00 00 	st.w	r0, 0[r10]
 700481a:	40 bd 00 05 	movhi	1280, r0, r10
 700481e:	4a a1 c8 00 	movea	200, r10, r10
 7004822:	4a c5 00 00 	ld.h	0[r10],r10
 7004826:	4a b5 ff ff 	andi	65535, r10, r10
 700482a:	4a b5 04 00 	andi	4, r10, r10
 700482e:	40 0d       	cmp	r0, r10
 7004830:	06 84       	be	7004836 <_intro1+0x186>
 7004832:	03 d0 13 00 	st.b	r0, 19[sp]
 7004836:	40 bd 00 07 	movhi	1792, r0, r10
 700483a:	4a a1 3c 68 	movea	26684, r10, r10
 700483e:	00 ac 04 00 	jal	7004842 <_intro1+0x192>
 7004842:	e4 47       	add	4, lp
 7004844:	0a 18       	jmp	[r10]
 7004846:	43 c1 13 00 	ld.b	19[sp],r10
 700484a:	4a b5 ff 00 	andi	255, r10, r10
 700484e:	40 0d       	cmp	r0, r10
 7004850:	06 84       	be	7004856 <_intro1+0x1a6>
 7004852:	ff ab 70 fe 	jr	70046c2 <_intro1+0x12>
 7004856:	c0 40       	mov	0, r6
 7004858:	e1 40       	mov	1, r7
 700485a:	01 41       	mov	1, r8
 700485c:	40 bd 01 07 	movhi	1793, r0, r10
 7004860:	2a a1 18 14 	movea	5144, r10, r9
 7004864:	40 bd 00 07 	movhi	1792, r0, r10
 7004868:	4a a1 9c 0f 	movea	3996, r10, r10
 700486c:	00 ac 04 00 	jal	7004870 <_intro1+0x1c0>
 7004870:	e4 47       	add	4, lp
 7004872:	0a 18       	jmp	[r10]
 7004874:	c0 40       	mov	0, r6
 7004876:	e1 40       	mov	1, r7
 7004878:	02 41       	mov	2, r8
 700487a:	40 bd 01 07 	movhi	1793, r0, r10
 700487e:	2a a1 18 14 	movea	5144, r10, r9
 7004882:	40 bd 00 07 	movhi	1792, r0, r10
 7004886:	4a a1 9c 0f 	movea	3996, r10, r10
 700488a:	00 ac 04 00 	jal	700488e <_intro1+0x1de>
 700488e:	e4 47       	add	4, lp
 7004890:	0a 18       	jmp	[r10]
 7004892:	c0 40       	mov	0, r6
 7004894:	e1 40       	mov	1, r7
 7004896:	03 41       	mov	3, r8
 7004898:	40 bd 01 07 	movhi	1793, r0, r10
 700489c:	2a a1 18 14 	movea	5144, r10, r9
 70048a0:	40 bd 00 07 	movhi	1792, r0, r10
 70048a4:	4a a1 9c 0f 	movea	3996, r10, r10
 70048a8:	00 ac 04 00 	jal	70048ac <_intro1+0x1fc>
 70048ac:	e4 47       	add	4, lp
 70048ae:	0a 18       	jmp	[r10]
 70048b0:	c0 40       	mov	0, r6
 70048b2:	e1 40       	mov	1, r7
 70048b4:	04 41       	mov	4, r8
 70048b6:	40 bd 01 07 	movhi	1793, r0, r10
 70048ba:	2a a1 18 14 	movea	5144, r10, r9
 70048be:	40 bd 00 07 	movhi	1792, r0, r10
 70048c2:	4a a1 9c 0f 	movea	3996, r10, r10
 70048c6:	00 ac 04 00 	jal	70048ca <_intro1+0x21a>
 70048ca:	e4 47       	add	4, lp
 70048cc:	0a 18       	jmp	[r10]
 70048ce:	c0 40       	mov	0, r6
 70048d0:	e1 40       	mov	1, r7
 70048d2:	05 41       	mov	5, r8
 70048d4:	40 bd 01 07 	movhi	1793, r0, r10
 70048d8:	2a a1 18 14 	movea	5144, r10, r9
 70048dc:	40 bd 00 07 	movhi	1792, r0, r10
 70048e0:	4a a1 9c 0f 	movea	3996, r10, r10
 70048e4:	00 ac 04 00 	jal	70048e8 <_intro1+0x238>
 70048e8:	e4 47       	add	4, lp
 70048ea:	0a 18       	jmp	[r10]
 70048ec:	c0 40       	mov	0, r6
 70048ee:	e1 40       	mov	1, r7
 70048f0:	06 41       	mov	6, r8
 70048f2:	40 bd 01 07 	movhi	1793, r0, r10
 70048f6:	2a a1 18 14 	movea	5144, r10, r9
 70048fa:	40 bd 00 07 	movhi	1792, r0, r10
 70048fe:	4a a1 9c 0f 	movea	3996, r10, r10
 7004902:	00 ac 04 00 	jal	7004906 <_intro1+0x256>
 7004906:	e4 47       	add	4, lp
 7004908:	0a 18       	jmp	[r10]
 700490a:	c0 40       	mov	0, r6
 700490c:	e1 40       	mov	1, r7
 700490e:	07 41       	mov	7, r8
 7004910:	40 bd 01 07 	movhi	1793, r0, r10
 7004914:	2a a1 18 14 	movea	5144, r10, r9
 7004918:	40 bd 00 07 	movhi	1792, r0, r10
 700491c:	4a a1 9c 0f 	movea	3996, r10, r10
 7004920:	00 ac 04 00 	jal	7004924 <_intro1+0x274>
 7004924:	e4 47       	add	4, lp
 7004926:	0a 18       	jmp	[r10]
 7004928:	c0 40       	mov	0, r6
 700492a:	e1 40       	mov	1, r7
 700492c:	08 41       	mov	8, r8
 700492e:	40 bd 01 07 	movhi	1793, r0, r10
 7004932:	2a a1 18 14 	movea	5144, r10, r9
 7004936:	40 bd 00 07 	movhi	1792, r0, r10
 700493a:	4a a1 9c 0f 	movea	3996, r10, r10
 700493e:	00 ac 04 00 	jal	7004942 <_intro1+0x292>
 7004942:	e4 47       	add	4, lp
 7004944:	0a 18       	jmp	[r10]
 7004946:	c0 40       	mov	0, r6
 7004948:	e1 40       	mov	1, r7
 700494a:	09 41       	mov	9, r8
 700494c:	40 bd 01 07 	movhi	1793, r0, r10
 7004950:	2a a1 18 14 	movea	5144, r10, r9
 7004954:	40 bd 00 07 	movhi	1792, r0, r10
 7004958:	4a a1 9c 0f 	movea	3996, r10, r10
 700495c:	00 ac 04 00 	jal	7004960 <_intro1+0x2b0>
 7004960:	e4 47       	add	4, lp
 7004962:	0a 18       	jmp	[r10]
 7004964:	c0 40       	mov	0, r6
 7004966:	e1 40       	mov	1, r7
 7004968:	0c 41       	mov	12, r8
 700496a:	40 bd 01 07 	movhi	1793, r0, r10
 700496e:	2a a1 43 14 	movea	5187, r10, r9
 7004972:	40 bd 00 07 	movhi	1792, r0, r10
 7004976:	4a a1 9c 0f 	movea	3996, r10, r10
 700497a:	00 ac 04 00 	jal	700497e <_intro1+0x2ce>
 700497e:	e4 47       	add	4, lp
 7004980:	0a 18       	jmp	[r10]
 7004982:	e3 cf 14 00 	ld.w	20[sp],lp
 7004986:	63 a4 18 00 	addi	24, sp, sp
 700498a:	1f 18       	jmp	[lp]

0700498c <_intro3>:
 700498c:	63 a4 e8 ff 	addi	-24, sp, sp
 7004990:	e3 df 14 00 	st.w	lp, 20[sp]
 7004994:	c3 40       	mov	3, r6
 7004996:	40 bd 00 07 	movhi	1792, r0, r10
 700499a:	4a a1 e4 15 	movea	5604, r10, r10
 700499e:	00 ac 04 00 	jal	70049a2 <_intro3+0x16>
 70049a2:	e4 47       	add	4, lp
 70049a4:	0a 18       	jmp	[r10]
 70049a6:	03 d4 12 00 	st.h	r0, 18[sp]
 70049aa:	36 8a       	br	70049e0 <_intro3+0x54>
 70049ac:	43 c5 12 00 	ld.h	18[sp],r10
 70049b0:	4a b5 ff ff 	andi	65535, r10, r10
 70049b4:	4a a5 00 60 	addi	24576, r10, r10
 70049b8:	63 c5 12 00 	ld.h	18[sp],r11
 70049bc:	6b b5 ff ff 	andi	65535, r11, r11
 70049c0:	80 bd 01 07 	movhi	1793, r0, r12
 70049c4:	8c a1 c4 81 	movea	-32316, r12, r12
 70049c8:	6c 05       	add	r12, r11
 70049ca:	6b c1 00 00 	ld.b	0[r11],r11
 70049ce:	6b b5 ff 00 	andi	255, r11, r11
 70049d2:	6a d1 00 00 	st.b	r11, 0[r10]
 70049d6:	43 c5 12 00 	ld.h	18[sp],r10
 70049da:	41 45       	add	1, r10
 70049dc:	43 d5 12 00 	st.h	r10, 18[sp]
 70049e0:	43 c5 12 00 	ld.h	18[sp],r10
 70049e4:	6a b5 ff ff 	andi	65535, r10, r11
 70049e8:	40 a1 4f 0d 	movea	3407, r0, r10
 70049ec:	6a 0d       	cmp	r10, r11
 70049ee:	be 87       	bnh	70049ac <_intro3+0x20>
 70049f0:	03 d4 12 00 	st.h	r0, 18[sp]
 70049f4:	3c 8a       	br	7004a30 <_intro3+0xa4>
 70049f6:	43 c5 12 00 	ld.h	18[sp],r10
 70049fa:	4a b5 ff ff 	andi	65535, r10, r10
 70049fe:	4a 05       	add	r10, r10
 7004a00:	60 bd 02 00 	movhi	2, r0, r11
 7004a04:	6a 05       	add	r10, r11
 7004a06:	43 c5 12 00 	ld.h	18[sp],r10
 7004a0a:	4a b5 ff ff 	andi	65535, r10, r10
 7004a0e:	4a 05       	add	r10, r10
 7004a10:	80 bd 01 07 	movhi	1793, r0, r12
 7004a14:	8c a1 14 8f 	movea	-28908, r12, r12
 7004a18:	4c 05       	add	r12, r10
 7004a1a:	4a c5 00 00 	ld.h	0[r10],r10
 7004a1e:	4a b5 ff ff 	andi	65535, r10, r10
 7004a22:	4b d5 00 00 	st.h	r10, 0[r11]
 7004a26:	43 c5 12 00 	ld.h	18[sp],r10
 7004a2a:	41 45       	add	1, r10
 7004a2c:	43 d5 12 00 	st.h	r10, 18[sp]
 7004a30:	43 c5 12 00 	ld.h	18[sp],r10
 7004a34:	6a b5 ff ff 	andi	65535, r10, r11
 7004a38:	40 a1 3f 06 	movea	1599, r0, r10
 7004a3c:	6a 0d       	cmp	r10, r11
 7004a3e:	b8 87       	bnh	70049f6 <_intro3+0x6a>
 7004a40:	40 bd 00 05 	movhi	1280, r0, r10
 7004a44:	4a a1 80 00 	movea	128, r10, r10
 7004a48:	61 41       	mov	1, r11
 7004a4a:	6a d1 00 00 	st.b	r11, 0[r10]
 7004a4e:	40 bd 00 05 	movhi	1280, r0, r10
 7004a52:	4a a1 7e 00 	movea	126, r10, r10
 7004a56:	60 a1 6e 4b 	movea	19310, r0, r11
 7004a5a:	6a d5 00 00 	st.h	r11, 0[r10]
 7004a5e:	40 bd 00 05 	movhi	1280, r0, r10
 7004a62:	4a a1 7c 00 	movea	124, r10, r10
 7004a66:	0a d4 00 00 	st.h	r0, 0[r10]
 7004a6a:	40 bd 00 05 	movhi	1280, r0, r10
 7004a6e:	4a a1 84 00 	movea	132, r10, r10
 7004a72:	60 bd 01 07 	movhi	1793, r0, r11
 7004a76:	6b a1 76 a5 	movea	-23178, r11, r11
 7004a7a:	6a dd 00 00 	st.w	r11, 0[r10]
 7004a7e:	3e 8a       	br	7004abc <_intro3+0x130>
 7004a80:	40 bd 00 07 	movhi	1792, r0, r10
 7004a84:	4a a1 28 0c 	movea	3112, r10, r10
 7004a88:	00 ac 04 00 	jal	7004a8c <_intro3+0x100>
 7004a8c:	e4 47       	add	4, lp
 7004a8e:	0a 18       	jmp	[r10]
 7004a90:	6a b5 ff ff 	andi	65535, r10, r11
 7004a94:	40 bd 00 05 	movhi	1280, r0, r10
 7004a98:	4a a1 c8 00 	movea	200, r10, r10
 7004a9c:	6a d5 00 00 	st.h	r11, 0[r10]
 7004aa0:	40 bd 00 05 	movhi	1280, r0, r10
 7004aa4:	4a a1 6c 00 	movea	108, r10, r10
 7004aa8:	0a dc 00 00 	st.w	r0, 0[r10]
 7004aac:	40 bd 00 07 	movhi	1792, r0, r10
 7004ab0:	4a a1 3c 68 	movea	26684, r10, r10
 7004ab4:	00 ac 04 00 	jal	7004ab8 <_intro3+0x12c>
 7004ab8:	e4 47       	add	4, lp
 7004aba:	0a 18       	jmp	[r10]
 7004abc:	40 bd 00 05 	movhi	1280, r0, r10
 7004ac0:	4a a1 c8 00 	movea	200, r10, r10
 7004ac4:	4a c5 00 00 	ld.h	0[r10],r10
 7004ac8:	4a b5 ff ff 	andi	65535, r10, r10
 7004acc:	4a b5 04 00 	andi	4, r10, r10
 7004ad0:	40 0d       	cmp	r0, r10
 7004ad2:	ae 85       	be	7004a80 <_intro3+0xf4>
 7004ad4:	40 bd 00 05 	movhi	1280, r0, r10
 7004ad8:	4a a1 80 00 	movea	128, r10, r10
 7004adc:	4a c1 00 00 	ld.b	0[r10],r10
 7004ae0:	4a b5 ff 00 	andi	255, r10, r10
 7004ae4:	41 4d       	cmp	1, r10
 7004ae6:	9a 85       	be	7004a80 <_intro3+0xf4>
 7004ae8:	03 d4 12 00 	st.h	r0, 18[sp]
 7004aec:	20 8a       	br	7004b0c <_intro3+0x180>
 7004aee:	43 c5 12 00 	ld.h	18[sp],r10
 7004af2:	4a b5 ff ff 	andi	65535, r10, r10
 7004af6:	4a 05       	add	r10, r10
 7004af8:	60 bd 02 00 	movhi	2, r0, r11
 7004afc:	4b 05       	add	r11, r10
 7004afe:	0a d4 00 00 	st.h	r0, 0[r10]
 7004b02:	43 c5 12 00 	ld.h	18[sp],r10
 7004b06:	41 45       	add	1, r10
 7004b08:	43 d5 12 00 	st.h	r10, 18[sp]
 7004b0c:	43 c5 12 00 	ld.h	18[sp],r10
 7004b10:	6a b5 ff ff 	andi	65535, r10, r11
 7004b14:	40 a1 3f 06 	movea	1599, r0, r10
 7004b18:	6a 0d       	cmp	r10, r11
 7004b1a:	d4 87       	bnh	7004aee <_intro3+0x162>
 7004b1c:	c6 40       	mov	6, r6
 7004b1e:	40 bd 00 07 	movhi	1792, r0, r10
 7004b22:	4a a1 e4 15 	movea	5604, r10, r10
 7004b26:	00 ac 04 00 	jal	7004b2a <_intro3+0x19e>
 7004b2a:	e4 47       	add	4, lp
 7004b2c:	0a 18       	jmp	[r10]
 7004b2e:	e3 cf 14 00 	ld.w	20[sp],lp
 7004b32:	63 a4 18 00 	addi	24, sp, sp
 7004b36:	1f 18       	jmp	[lp]

07004b38 <_initEnemyTable>:
 7004b38:	7c 44       	add	-4, sp
 7004b3a:	03 d0 03 00 	st.b	r0, 3[sp]
 7004b3e:	2c 8a       	br	7004b6a <_initEnemyTable+0x32>
 7004b40:	43 c1 03 00 	ld.b	3[sp],r10
 7004b44:	4a b5 ff 00 	andi	255, r10, r10
 7004b48:	60 bd 00 05 	movhi	1280, r0, r11
 7004b4c:	6b a1 d0 00 	movea	208, r11, r11
 7004b50:	80 a1 c8 00 	movea	200, r0, r12
 7004b54:	4c 21       	mul	r12, r10
 7004b56:	4b 05       	add	r11, r10
 7004b58:	4a a5 c0 00 	addi	192, r10, r10
 7004b5c:	0a dc 00 00 	st.w	r0, 0[r10]
 7004b60:	43 c1 03 00 	ld.b	3[sp],r10
 7004b64:	41 45       	add	1, r10
 7004b66:	43 d1 03 00 	st.b	r10, 3[sp]
 7004b6a:	43 c1 03 00 	ld.b	3[sp],r10
 7004b6e:	4a b5 ff 00 	andi	255, r10, r10
 7004b72:	4f 4d       	cmp	15, r10
 7004b74:	cc 87       	bnh	7004b40 <_initEnemyTable+0x8>
 7004b76:	64 44       	add	4, sp
 7004b78:	1f 18       	jmp	[lp]
	...

07004b7c <_initObjectTable>:
 7004b7c:	7c 44       	add	-4, sp
 7004b7e:	03 d0 03 00 	st.b	r0, 3[sp]
 7004b82:	2c 8a       	br	7004bae <_initObjectTable+0x32>
 7004b84:	43 c1 03 00 	ld.b	3[sp],r10
 7004b88:	4a b5 ff 00 	andi	255, r10, r10
 7004b8c:	60 bd 00 05 	movhi	1280, r0, r11
 7004b90:	6b a1 70 5b 	movea	23408, r11, r11
 7004b94:	80 a1 c8 00 	movea	200, r0, r12
 7004b98:	4c 21       	mul	r12, r10
 7004b9a:	4b 05       	add	r11, r10
 7004b9c:	4a a5 c0 00 	addi	192, r10, r10
 7004ba0:	0a dc 00 00 	st.w	r0, 0[r10]
 7004ba4:	43 c1 03 00 	ld.b	3[sp],r10
 7004ba8:	41 45       	add	1, r10
 7004baa:	43 d1 03 00 	st.b	r10, 3[sp]
 7004bae:	43 c1 03 00 	ld.b	3[sp],r10
 7004bb2:	4a b5 ff 00 	andi	255, r10, r10
 7004bb6:	4f 4d       	cmp	15, r10
 7004bb8:	cc 87       	bnh	7004b84 <_initObjectTable+0x8>
 7004bba:	64 44       	add	4, sp
 7004bbc:	1f 18       	jmp	[lp]
	...

07004bc0 <_doReadMapRow>:
 7004bc0:	63 a4 e0 ff 	addi	-32, sp, sp
 7004bc4:	e3 df 1c 00 	st.w	lp, 28[sp]
 7004bc8:	c3 dc 20 00 	st.w	r6, 32[sp]
 7004bcc:	e3 dc 24 00 	st.w	r7, 36[sp]
 7004bd0:	03 dc 10 00 	st.w	r0, 16[sp]
 7004bd4:	03 d0 16 00 	st.b	r0, 22[sp]
 7004bd8:	03 d0 17 00 	st.b	r0, 23[sp]
 7004bdc:	a8 8a       	br	7004c84 <_doReadMapRow+0xc4>
 7004bde:	43 cd 20 00 	ld.w	32[sp],r10
 7004be2:	6a cd 00 00 	ld.w	0[r10],r11
 7004be6:	43 cd 10 00 	ld.w	16[sp],r10
 7004bea:	4b 05       	add	r11, r10
 7004bec:	4a c1 00 00 	ld.b	0[r10],r10
 7004bf0:	4a b5 ff 00 	andi	255, r10, r10
 7004bf4:	40 0d       	cmp	r0, r10
 7004bf6:	14 94       	bne	7004c0a <_doReadMapRow+0x4a>
 7004bf8:	40 bd 00 05 	movhi	1280, r0, r10
 7004bfc:	4a a1 b9 00 	movea	185, r10, r10
 7004c00:	61 41       	mov	1, r11
 7004c02:	6a d1 00 00 	st.b	r11, 0[r10]
 7004c06:	00 a8 30 06 	jr	7005236 <_doReadMapRow+0x676>
 7004c0a:	43 cd 20 00 	ld.w	32[sp],r10
 7004c0e:	6a cd 00 00 	ld.w	0[r10],r11
 7004c12:	43 cd 10 00 	ld.w	16[sp],r10
 7004c16:	4b 05       	add	r11, r10
 7004c18:	4a c1 00 00 	ld.b	0[r10],r10
 7004c1c:	4a b5 ff 00 	andi	255, r10, r10
 7004c20:	70 41       	mov	-16, r11
 7004c22:	4b 35       	and	r11, r10
 7004c24:	43 d1 15 00 	st.b	r10, 21[sp]
 7004c28:	43 cd 20 00 	ld.w	32[sp],r10
 7004c2c:	6a cd 00 00 	ld.w	0[r10],r11
 7004c30:	43 cd 10 00 	ld.w	16[sp],r10
 7004c34:	4b 05       	add	r11, r10
 7004c36:	4a c1 00 00 	ld.b	0[r10],r10
 7004c3a:	4a b5 ff 00 	andi	255, r10, r10
 7004c3e:	4a b5 0f 00 	andi	15, r10, r10
 7004c42:	43 d1 16 00 	st.b	r10, 22[sp]
 7004c46:	43 c1 17 00 	ld.b	23[sp],r10
 7004c4a:	4a b5 ff 00 	andi	255, r10, r10
 7004c4e:	41 45       	add	1, r10
 7004c50:	6a 01       	mov	r10, r11
 7004c52:	43 cd 24 00 	ld.w	36[sp],r10
 7004c56:	6a 0d       	cmp	r10, r11
 7004c58:	22 92       	bnc	7004c7a <_doReadMapRow+0xba>
 7004c5a:	43 c1 16 00 	ld.b	22[sp],r10
 7004c5e:	4a b5 ff 00 	andi	255, r10, r10
 7004c62:	4a 05       	add	r10, r10
 7004c64:	63 c1 16 00 	ld.b	22[sp],r11
 7004c68:	6b b5 ff 00 	andi	255, r11, r11
 7004c6c:	6a 05       	add	r10, r11
 7004c6e:	43 cd 10 00 	ld.w	16[sp],r10
 7004c72:	4b 05       	add	r11, r10
 7004c74:	41 45       	add	1, r10
 7004c76:	43 dd 10 00 	st.w	r10, 16[sp]
 7004c7a:	43 c1 17 00 	ld.b	23[sp],r10
 7004c7e:	41 45       	add	1, r10
 7004c80:	43 d1 17 00 	st.b	r10, 23[sp]
 7004c84:	43 c1 17 00 	ld.b	23[sp],r10
 7004c88:	6a b5 ff 00 	andi	255, r10, r11
 7004c8c:	43 cd 24 00 	ld.w	36[sp],r10
 7004c90:	6a 0d       	cmp	r10, r11
 7004c92:	4c 83       	bc	7004bde <_doReadMapRow+0x1e>
 7004c94:	43 cd 10 00 	ld.w	16[sp],r10
 7004c98:	41 45       	add	1, r10
 7004c9a:	43 dd 10 00 	st.w	r10, 16[sp]
 7004c9e:	03 d0 17 00 	st.b	r0, 23[sp]
 7004ca2:	00 a8 7c 05 	jr	700521e <_doReadMapRow+0x65e>
 7004ca6:	43 cd 20 00 	ld.w	32[sp],r10
 7004caa:	6a cd 00 00 	ld.w	0[r10],r11
 7004cae:	43 cd 10 00 	ld.w	16[sp],r10
 7004cb2:	4b 05       	add	r11, r10
 7004cb4:	4a c1 00 00 	ld.b	0[r10],r10
 7004cb8:	43 d1 19 00 	st.b	r10, 25[sp]
 7004cbc:	43 cd 20 00 	ld.w	32[sp],r10
 7004cc0:	6a cd 00 00 	ld.w	0[r10],r11
 7004cc4:	43 cd 10 00 	ld.w	16[sp],r10
 7004cc8:	41 45       	add	1, r10
 7004cca:	4b 05       	add	r11, r10
 7004ccc:	4a c1 00 00 	ld.b	0[r10],r10
 7004cd0:	43 d1 1a 00 	st.b	r10, 26[sp]
 7004cd4:	43 cd 20 00 	ld.w	32[sp],r10
 7004cd8:	6a cd 00 00 	ld.w	0[r10],r11
 7004cdc:	43 cd 10 00 	ld.w	16[sp],r10
 7004ce0:	42 45       	add	2, r10
 7004ce2:	4b 05       	add	r11, r10
 7004ce4:	4a c1 00 00 	ld.b	0[r10],r10
 7004ce8:	43 d1 1b 00 	st.b	r10, 27[sp]
 7004cec:	43 c1 15 00 	ld.b	21[sp],r10
 7004cf0:	6a b5 ff 00 	andi	255, r10, r11
 7004cf4:	40 a1 10 00 	movea	16, r0, r10
 7004cf8:	6a 0d       	cmp	r10, r11
 7004cfa:	06 84       	be	7004d00 <_doReadMapRow+0x140>
 7004cfc:	00 a8 26 02 	jr	7004f22 <_doReadMapRow+0x362>
 7004d00:	03 d0 18 00 	st.b	r0, 24[sp]
 7004d04:	0c 8a       	br	7004d10 <_doReadMapRow+0x150>
 7004d06:	43 c1 18 00 	ld.b	24[sp],r10
 7004d0a:	41 45       	add	1, r10
 7004d0c:	43 d1 18 00 	st.b	r10, 24[sp]
 7004d10:	40 bd 00 05 	movhi	1280, r0, r10
 7004d14:	6a a1 d0 00 	movea	208, r10, r11
 7004d18:	43 c1 18 00 	ld.b	24[sp],r10
 7004d1c:	4a b5 ff 00 	andi	255, r10, r10
 7004d20:	80 a1 c8 00 	movea	200, r0, r12
 7004d24:	4c 21       	mul	r12, r10
 7004d26:	4b 05       	add	r11, r10
 7004d28:	4a a5 c0 00 	addi	192, r10, r10
 7004d2c:	4a cd 00 00 	ld.w	0[r10],r10
 7004d30:	40 0d       	cmp	r0, r10
 7004d32:	0e 84       	be	7004d40 <_doReadMapRow+0x180>
 7004d34:	43 c1 18 00 	ld.b	24[sp],r10
 7004d38:	4a b5 ff 00 	andi	255, r10, r10
 7004d3c:	4f 4d       	cmp	15, r10
 7004d3e:	c8 87       	bnh	7004d06 <_doReadMapRow+0x146>
 7004d40:	43 c1 1a 00 	ld.b	26[sp],r10
 7004d44:	4a b5 ff 00 	andi	255, r10, r10
 7004d48:	4a b5 0f 00 	andi	15, r10, r10
 7004d4c:	60 bd 00 05 	movhi	1280, r0, r11
 7004d50:	6b a1 08 00 	movea	8, r11, r11
 7004d54:	42 51       	shl	2, r10
 7004d56:	4b 05       	add	r11, r10
 7004d58:	4a cd 00 00 	ld.w	0[r10],r10
 7004d5c:	63 c1 18 00 	ld.b	24[sp],r11
 7004d60:	6b b5 ff 00 	andi	255, r11, r11
 7004d64:	a0 a1 c8 00 	movea	200, r0, r13
 7004d68:	6d 21       	mul	r13, r11
 7004d6a:	80 bd 00 05 	movhi	1280, r0, r12
 7004d6e:	8c a1 d0 00 	movea	208, r12, r12
 7004d72:	6c 05       	add	r12, r11
 7004d74:	cb 00       	mov	r11, r6
 7004d76:	ea 00       	mov	r10, r7
 7004d78:	40 bd 00 07 	movhi	1792, r0, r10
 7004d7c:	4a a1 c0 2f 	movea	12224, r10, r10
 7004d80:	00 ac 04 00 	jal	7004d84 <_doReadMapRow+0x1c4>
 7004d84:	e4 47       	add	4, lp
 7004d86:	0a 18       	jmp	[r10]
 7004d88:	43 c1 18 00 	ld.b	24[sp],r10
 7004d8c:	6a b5 ff 00 	andi	255, r10, r11
 7004d90:	43 c1 19 00 	ld.b	25[sp],r10
 7004d94:	4a b5 ff 00 	andi	255, r10, r10
 7004d98:	44 55       	shr	4, r10
 7004d9a:	4a b5 ff 00 	andi	255, r10, r10
 7004d9e:	a0 a1 a0 0f 	movea	4000, r0, r13
 7004da2:	4d 21       	mul	r13, r10
 7004da4:	4a a5 00 83 	addi	-32000, r10, r10
 7004da8:	80 bd 00 05 	movhi	1280, r0, r12
 7004dac:	8c a1 d0 00 	movea	208, r12, r12
 7004db0:	a0 a1 c8 00 	movea	200, r0, r13
 7004db4:	6d 21       	mul	r13, r11
 7004db6:	6c 05       	add	r12, r11
 7004db8:	4b dd 00 00 	st.w	r10, 0[r11]
 7004dbc:	43 c1 18 00 	ld.b	24[sp],r10
 7004dc0:	6a b5 ff 00 	andi	255, r10, r11
 7004dc4:	43 c1 19 00 	ld.b	25[sp],r10
 7004dc8:	4a b5 ff 00 	andi	255, r10, r10
 7004dcc:	4a b5 0f 00 	andi	15, r10, r10
 7004dd0:	80 a1 e8 03 	movea	1000, r0, r12
 7004dd4:	4c 21       	mul	r12, r10
 7004dd6:	80 bd 00 05 	movhi	1280, r0, r12
 7004dda:	8c a1 d0 00 	movea	208, r12, r12
 7004dde:	a0 a1 32 00 	movea	50, r0, r13
 7004de2:	6d 21       	mul	r13, r11
 7004de4:	61 45       	add	1, r11
 7004de6:	62 51       	shl	2, r11
 7004de8:	6c 05       	add	r12, r11
 7004dea:	4b dd 00 00 	st.w	r10, 0[r11]
 7004dee:	43 c1 18 00 	ld.b	24[sp],r10
 7004df2:	6a b5 ff 00 	andi	255, r10, r11
 7004df6:	43 c1 1a 00 	ld.b	26[sp],r10
 7004dfa:	4a b5 ff 00 	andi	255, r10, r10
 7004dfe:	44 55       	shr	4, r10
 7004e00:	4a b5 ff 00 	andi	255, r10, r10
 7004e04:	4a a5 10 00 	addi	16, r10, r10
 7004e08:	8a 01       	mov	r10, r12
 7004e0a:	8c 51       	shl	12, r12
 7004e0c:	40 bd 00 05 	movhi	1280, r0, r10
 7004e10:	aa a1 d0 00 	movea	208, r10, r13
 7004e14:	4b 01       	mov	r11, r10
 7004e16:	4a 05       	add	r10, r10
 7004e18:	4b 05       	add	r11, r10
 7004e1a:	43 51       	shl	3, r10
 7004e1c:	4b 05       	add	r11, r10
 7004e1e:	41 45       	add	1, r10
 7004e20:	43 51       	shl	3, r10
 7004e22:	4d 05       	add	r13, r10
 7004e24:	8a dd 00 00 	st.w	r12, 0[r10]
 7004e28:	43 c1 18 00 	ld.b	24[sp],r10
 7004e2c:	4a b5 ff 00 	andi	255, r10, r10
 7004e30:	60 bd 00 05 	movhi	1280, r0, r11
 7004e34:	6b a1 d0 00 	movea	208, r11, r11
 7004e38:	80 a1 c8 00 	movea	200, r0, r12
 7004e3c:	4c 21       	mul	r12, r10
 7004e3e:	4b 05       	add	r11, r10
 7004e40:	4a a5 50 00 	addi	80, r10, r10
 7004e44:	60 a1 80 02 	movea	640, r0, r11
 7004e48:	6a dd 00 00 	st.w	r11, 0[r10]
 7004e4c:	43 c1 18 00 	ld.b	24[sp],r10
 7004e50:	4a b5 ff 00 	andi	255, r10, r10
 7004e54:	60 bd 00 05 	movhi	1280, r0, r11
 7004e58:	6b a1 d0 00 	movea	208, r11, r11
 7004e5c:	a0 a1 c8 00 	movea	200, r0, r13
 7004e60:	4d 21       	mul	r13, r10
 7004e62:	4b 05       	add	r11, r10
 7004e64:	4a a5 54 00 	addi	84, r10, r10
 7004e68:	60 a1 80 02 	movea	640, r0, r11
 7004e6c:	6a dd 00 00 	st.w	r11, 0[r10]
 7004e70:	43 c1 18 00 	ld.b	24[sp],r10
 7004e74:	4a b5 ff 00 	andi	255, r10, r10
 7004e78:	60 bd 00 05 	movhi	1280, r0, r11
 7004e7c:	6b a1 d0 00 	movea	208, r11, r11
 7004e80:	80 a1 c8 00 	movea	200, r0, r12
 7004e84:	4c 21       	mul	r12, r10
 7004e86:	4b 05       	add	r11, r10
 7004e88:	4a a5 58 00 	addi	88, r10, r10
 7004e8c:	60 a1 80 02 	movea	640, r0, r11
 7004e90:	6a dd 00 00 	st.w	r11, 0[r10]
 7004e94:	43 c1 18 00 	ld.b	24[sp],r10
 7004e98:	4a b5 ff 00 	andi	255, r10, r10
 7004e9c:	60 bd 00 05 	movhi	1280, r0, r11
 7004ea0:	6b a1 d0 00 	movea	208, r11, r11
 7004ea4:	a0 a1 c8 00 	movea	200, r0, r13
 7004ea8:	4d 21       	mul	r13, r10
 7004eaa:	4b 05       	add	r11, r10
 7004eac:	4a a5 b4 00 	addi	180, r10, r10
 7004eb0:	60 a1 d0 07 	movea	2000, r0, r11
 7004eb4:	6a dd 00 00 	st.w	r11, 0[r10]
 7004eb8:	43 c1 18 00 	ld.b	24[sp],r10
 7004ebc:	4a b5 ff 00 	andi	255, r10, r10
 7004ec0:	60 bd 00 05 	movhi	1280, r0, r11
 7004ec4:	6b a1 d0 00 	movea	208, r11, r11
 7004ec8:	80 a1 c8 00 	movea	200, r0, r12
 7004ecc:	4c 21       	mul	r12, r10
 7004ece:	4b 05       	add	r11, r10
 7004ed0:	4a a5 b8 00 	addi	184, r10, r10
 7004ed4:	60 a1 b8 0b 	movea	3000, r0, r11
 7004ed8:	6a dd 00 00 	st.w	r11, 0[r10]
 7004edc:	43 c1 18 00 	ld.b	24[sp],r10
 7004ee0:	4a b5 ff 00 	andi	255, r10, r10
 7004ee4:	60 bd 00 05 	movhi	1280, r0, r11
 7004ee8:	6b a1 d0 00 	movea	208, r11, r11
 7004eec:	a0 a1 c8 00 	movea	200, r0, r13
 7004ef0:	4d 21       	mul	r13, r10
 7004ef2:	4b 05       	add	r11, r10
 7004ef4:	4a a5 bc 00 	addi	188, r10, r10
 7004ef8:	60 a1 d0 07 	movea	2000, r0, r11
 7004efc:	6a dd 00 00 	st.w	r11, 0[r10]
 7004f00:	43 c1 18 00 	ld.b	24[sp],r10
 7004f04:	4a b5 ff 00 	andi	255, r10, r10
 7004f08:	60 bd 00 05 	movhi	1280, r0, r11
 7004f0c:	6b a1 d0 00 	movea	208, r11, r11
 7004f10:	80 a1 c8 00 	movea	200, r0, r12
 7004f14:	4c 21       	mul	r12, r10
 7004f16:	4b 05       	add	r11, r10
 7004f18:	4a a5 a8 00 	addi	168, r10, r10
 7004f1c:	61 41       	mov	1, r11
 7004f1e:	6a dd 00 00 	st.w	r11, 0[r10]
 7004f22:	43 c1 15 00 	ld.b	21[sp],r10
 7004f26:	6a b5 ff 00 	andi	255, r10, r11
 7004f2a:	40 a1 20 00 	movea	32, r0, r10
 7004f2e:	6a 0d       	cmp	r10, r11
 7004f30:	06 84       	be	7004f36 <_doReadMapRow+0x376>
 7004f32:	00 a8 d8 02 	jr	700520a <_doReadMapRow+0x64a>
 7004f36:	03 d0 18 00 	st.b	r0, 24[sp]
 7004f3a:	0c 8a       	br	7004f46 <_doReadMapRow+0x386>
